///////////////////////////////////////////////////////////////////////////////
//                                                                            /
// IAR C/C++ Compiler V7.51A/W32 for 8051               22/Aug/2013  14:33:05 /
// Copyright 2004-2009 IAR Systems AB.                                        /
//                                                                            /
//    Core               =  plain                                             /
//    Code model         =  banked                                            /
//    Data model         =  large                                             /
//    Calling convention =  xdata reentrant                                   /
//    Constant location  =  data_rom                                          /
//    Dptr setup         =  1,16                                              /
//    Source file        =  D:\Texas Instruments\ZStack-CC2530-2.3.0-1.4.0\Pr /
//                          ojects\zstack\Samples\Te\Source\Coordinator.c     /
//    Command line       =  -f "D:\Texas Instruments\ZStack-CC2530-2.3.0-1.4. /
//                          0\Projects\zstack\Samples\Te\CC2530DB\..\..\..\To /
//                          ols\CC2530DB\f8wCoord.cfg" (-DCPU32MHZ            /
//                          -DROOT=__near_func -DMAC_CFG_APP_PENDING_QUEUE=TR /
//                          UE -DZDO_COORDINATOR -DRTR_NWK -DBLINK_LEDS) -f   /
//                          "D:\Texas Instruments\ZStack-CC2530-2.3.0-1.4.0\P /
//                          rojects\zstack\Samples\Te\CC2530DB\..\..\..\Tools /
//                          \CC2530DB\f8wConfig.cfg" (-DSECURE=0              /
//                          -DZG_SECURE_DYNAMIC=0 -DREFLECTOR                 /
//                          -DDEFAULT_CHANLIST=0x00000800                     /
//                          -DZDAPP_CONFIG_PAN_ID=0xFFFF                      /
//                          -DNWK_START_DELAY=100 -DEXTENDED_JOINING_RANDOM_M /
//                          ASK=0x007F -DBEACON_REQUEST_DELAY=100             /
//                          -DBEACON_REQ_DELAY_MASK=0x00FF                    /
//                          -DROUTE_EXPIRY_TIME=30 -DAPSC_ACK_WAIT_DURATION_P /
//                          OLLED=3000 -DNWK_INDIRECT_MSG_TIMEOUT=7           /
//                          -DMAX_RREQ_ENTRIES=8 -DAPSC_MAX_FRAME_RETRIES=3   /
//                          -DNWK_MAX_DATA_RETRIES=2                          /
//                          -DMAX_POLL_FAILURE_RETRIES=2 -DMAX_BCAST=9        /
//                          -DAPS_MAX_GROUPS=16 -DMAX_RTG_ENTRIES=40          /
//                          -DNWK_MAX_BINDING_ENTRIES=4                       /
//                          -DMAX_BINDING_CLUSTER_IDS=4                       /
//                          "-DDEFAULT_KEY={0x01, 0x03, 0x05, 0x07, 0x09,     /
//                          0x0B, 0x0D, 0x0F, 0x00, 0x02, 0x04, 0x06, 0x08,   /
//                          0x0A, 0x0C, 0x0D}" -DMAC_MAX_FRAME_SIZE=116       /
//                          "-DCONST=const __code" -DGENERIC=__generic        /
//                          -DRFD_RCVC_ALWAYS_ON=FALSE -DPOLL_RATE=1000       /
//                          -DQUEUED_POLL_RATE=100 -DRESPONSE_POLL_RATE=100)  /
//                          -DREJOIN_POLL_RATE=440 "D:\Texas                  /
//                          Instruments\ZStack-CC2530-2.3.0-1.4.0\Projects\zs /
//                          tack\Samples\Te\Source\Coordinator.c" -D          /
//                          ZTOOL_P1 -D MT_TASK -D MT_SYS_FUNC -D             /
//                          MT_ZDO_FUNC -D LCD_SUPPORTED=DEBUG -lC "D:\Texas  /
//                          Instruments\ZStack-CC2530-2.3.0-1.4.0\Projects\zs /
//                          tack\Samples\Te\CC2530DB\CoordinatorEB\List\"     /
//                          -lA "D:\Texas Instruments\ZStack-CC2530-2.3.0-1.4 /
//                          .0\Projects\zstack\Samples\Te\CC2530DB\Coordinato /
//                          rEB\List\" --diag_suppress Pe001,Pa010 -o         /
//                          "D:\Texas Instruments\ZStack-CC2530-2.3.0-1.4.0\P /
//                          rojects\zstack\Samples\Te\CC2530DB\CoordinatorEB\ /
//                          Obj\" -e --require_prototypes --debug             /
//                          --core=plain --dptr=16,1 --data_model=large       /
//                          --code_model=banked --calling_convention=xdata_re /
//                          entrant --place_constants=data_rom                /
//                          --nr_virtual_regs 16 -I "D:\Texas                 /
//                          Instruments\ZStack-CC2530-2.3.0-1.4.0\Projects\zs /
//                          tack\Samples\Te\CC2530DB\" -I "D:\Texas           /
//                          Instruments\ZStack-CC2530-2.3.0-1.4.0\Projects\zs /
//                          tack\Samples\Te\CC2530DB\..\SOURCE\" -I           /
//                          "D:\Texas Instruments\ZStack-CC2530-2.3.0-1.4.0\P /
//                          rojects\zstack\Samples\Te\CC2530DB\..\..\..\ZMAIN /
//                          \TI2530DB\" -I "D:\Texas                          /
//                          Instruments\ZStack-CC2530-2.3.0-1.4.0\Projects\zs /
//                          tack\Samples\Te\CC2530DB\..\..\..\..\..\COMPONENT /
//                          S\MT\" -I "D:\Texas Instruments\ZStack-CC2530-2.3 /
//                          .0-1.4.0\Projects\zstack\Samples\Te\CC2530DB\..\. /
//                          .\..\..\..\COMPONENTS\HAL\INCLUDE\" -I "D:\Texas  /
//                          Instruments\ZStack-CC2530-2.3.0-1.4.0\Projects\zs /
//                          tack\Samples\Te\CC2530DB\..\..\..\..\..\COMPONENT /
//                          S\HAL\TARGET\CC2530EB\" -I "D:\Texas              /
//                          Instruments\ZStack-CC2530-2.3.0-1.4.0\Projects\zs /
//                          tack\Samples\Te\CC2530DB\..\..\..\..\..\COMPONENT /
//                          S\OSAL\MCU\CCSOC\" -I "D:\Texas                   /
//                          Instruments\ZStack-CC2530-2.3.0-1.4.0\Projects\zs /
//                          tack\Samples\Te\CC2530DB\..\..\..\..\..\COMPONENT /
//                          S\OSAL\INCLUDE\" -I "D:\Texas                     /
//                          Instruments\ZStack-CC2530-2.3.0-1.4.0\Projects\zs /
//                          tack\Samples\Te\CC2530DB\..\..\..\..\..\COMPONENT /
//                          S\STACK\AF\" -I "D:\Texas                         /
//                          Instruments\ZStack-CC2530-2.3.0-1.4.0\Projects\zs /
//                          tack\Samples\Te\CC2530DB\..\..\..\..\..\COMPONENT /
//                          S\STACK\NWK\" -I "D:\Texas                        /
//                          Instruments\ZStack-CC2530-2.3.0-1.4.0\Projects\zs /
//                          tack\Samples\Te\CC2530DB\..\..\..\..\..\COMPONENT /
//                          S\STACK\SEC\" -I "D:\Texas                        /
//                          Instruments\ZStack-CC2530-2.3.0-1.4.0\Projects\zs /
//                          tack\Samples\Te\CC2530DB\..\..\..\..\..\COMPONENT /
//                          S\STACK\SAPI\" -I "D:\Texas                       /
//                          Instruments\ZStack-CC2530-2.3.0-1.4.0\Projects\zs /
//                          tack\Samples\Te\CC2530DB\..\..\..\..\..\COMPONENT /
//                          S\STACK\SYS\" -I "D:\Texas                        /
//                          Instruments\ZStack-CC2530-2.3.0-1.4.0\Projects\zs /
//                          tack\Samples\Te\CC2530DB\..\..\..\..\..\COMPONENT /
//                          S\STACK\ZDO\" -I "D:\Texas                        /
//                          Instruments\ZStack-CC2530-2.3.0-1.4.0\Projects\zs /
//                          tack\Samples\Te\CC2530DB\..\..\..\..\..\COMPONENT /
//                          S\ZMAC\F8W\" -I "D:\Texas                         /
//                          Instruments\ZStack-CC2530-2.3.0-1.4.0\Projects\zs /
//                          tack\Samples\Te\CC2530DB\..\..\..\..\..\COMPONENT /
//                          S\ZMAC\" -I "D:\Texas Instruments\ZStack-CC2530-2 /
//                          .3.0-1.4.0\Projects\zstack\Samples\Te\CC2530DB\.. /
//                          \..\..\..\..\COMPONENTS\SERVICES\SADDR\" -I       /
//                          "D:\Texas Instruments\ZStack-CC2530-2.3.0-1.4.0\P /
//                          rojects\zstack\Samples\Te\CC2530DB\..\..\..\..\.. /
//                          \COMPONENTS\SERVICES\SDATA\" -I "D:\Texas         /
//                          Instruments\ZStack-CC2530-2.3.0-1.4.0\Projects\zs /
//                          tack\Samples\Te\CC2530DB\..\..\..\..\..\COMPONENT /
//                          S\MAC\INCLUDE\" -I "D:\Texas                      /
//                          Instruments\ZStack-CC2530-2.3.0-1.4.0\Projects\zs /
//                          tack\Samples\Te\CC2530DB\..\..\..\..\..\COMPONENT /
//                          S\MAC\HIGH_LEVEL\" -I "D:\Texas                   /
//                          Instruments\ZStack-CC2530-2.3.0-1.4.0\Projects\zs /
//                          tack\Samples\Te\CC2530DB\..\..\..\..\..\COMPONENT /
//                          S\MAC\LOW_LEVEL\srf04\" -I "D:\Texas              /
//                          Instruments\ZStack-CC2530-2.3.0-1.4.0\Projects\zs /
//                          tack\Samples\Te\CC2530DB\..\..\..\..\..\COMPONENT /
//                          S\MAC\LOW_LEVEL\srf04\SINGLE_CHIP\" -I            /
//                          "C:\Program Files\IAR Systems\Embedded Workbench  /
//                          5.3\8051\INC\" -I "C:\Program Files\IAR           /
//                          Systems\Embedded Workbench 5.3\8051\INC\CLIB\"    /
//                          -Ohz                                              /
//    List file          =  D:\Texas Instruments\ZStack-CC2530-2.3.0-1.4.0\Pr /
//                          ojects\zstack\Samples\Te\CC2530DB\CoordinatorEB\L /
//                          ist\Coordinator.s51                               /
//                                                                            /
//                                                                            /
///////////////////////////////////////////////////////////////////////////////

        NAME Coordinator

        RTMODEL "__calling_convention", "xdata_reentrant"
        RTMODEL "__code_model", "banked"
        RTMODEL "__core", "plain"
        RTMODEL "__data_model", "large"
        RTMODEL "__dptr_size", "16"
        RTMODEL "__extended_stack", "disabled"
        RTMODEL "__location_for_constants", "data"
        RTMODEL "__number_of_dptrs", "1"
        RTMODEL "__rt_version", "1"

        RSEG DOVERLAY:DATA:NOROOT(0)
        RSEG IOVERLAY:IDATA:NOROOT(0)
        RSEG ISTACK:IDATA:NOROOT(0)
        RSEG PSTACK:XDATA:NOROOT(0)
        RSEG XSTACK:XDATA:NOROOT(0)

        EXTERN ??GenericApp_MessageMSGCB?relay
        EXTERN ??GenericApp_SendTheMessage?relay
        EXTERN ??rxCB?relay
        EXTERN ?ALLOC_XSTACK8
        EXTERN ?BANKED_ENTER_XDATA
        EXTERN ?BANKED_LEAVE_XDATA
        EXTERN ?BDISPATCH
        EXTERN ?BRET
        EXTERN ?DEALLOC_XSTACK8
        EXTERN ?PUSH_XSTACK_I_ONE
        EXTERN ?PUSH_XSTACK_I_THREE
        EXTERN ?PUSH_XSTACK_I_TWO
        EXTERN ?V0
        EXTERN ?XSP
        EXTERN ?XSTACK_DISP0_8
        EXTERN __INIT_XDATA_Z

        PUBLIC ??GenericApp_Init?relay
        FUNCTION ??GenericApp_Init?relay,0203H
        PUBLIC ??GenericApp_MessageMSGCB?relay
        FUNCTION ??GenericApp_MessageMSGCB?relay,0203H
        PUBLIC ??GenericApp_ProcessEvent?relay
        FUNCTION ??GenericApp_ProcessEvent?relay,0203H
        PUBLIC ??GenericApp_SendTheMessage?relay
        FUNCTION ??GenericApp_SendTheMessage?relay,0203H
        FUNCTION ??rxCB?relay,0203H
        PUBLIC GenericApp_ClusterList
        PUBLIC GenericApp_Init
        FUNCTION GenericApp_Init,021203H
        ARGFRAME XSTACK, 0, STACK
        LOCFRAME ISTACK, 3, STACK
        LOCFRAME XSTACK, 29, STACK
        PUBLIC GenericApp_MessageMSGCB
        FUNCTION GenericApp_MessageMSGCB,021203H
        ARGFRAME XSTACK, 12, STACK
        ARGFRAME IOVERLAY, 0, STATIC
        ARGFRAME DOVERLAY, 0, STATIC
        LOCFRAME ISTACK, 1, STACK
        LOCFRAME XSTACK, 31, STACK
        PUBLIC GenericApp_ProcessEvent
        FUNCTION GenericApp_ProcessEvent,021203H
        ARGFRAME XSTACK, 0, STACK
        LOCFRAME XSTACK, 12, STACK
        PUBLIC GenericApp_SendTheMessage
        FUNCTION GenericApp_SendTheMessage,021203H
        ARGFRAME XSTACK, 80, STACK
        ARGFRAME IOVERLAY, 0, STATIC
        ARGFRAME DOVERLAY, 0, STATIC
        LOCFRAME ISTACK, 1, STACK
        LOCFRAME XSTACK, 32, STACK
        PUBLIC GenericApp_SimpleDesc
        PUBLIC GenericApp_TaskID
        PUBLIC GenericApp_TransID
        PUBLIC GenericApp_epDesc
        FUNCTION rxCB,021603H
        ARGFRAME XSTACK, 0, STACK
        LOCFRAME ISTACK, 2, STACK
        LOCFRAME XSTACK, 80, STACK
        
        CFI Names cfiNames0
        CFI StackFrame CFA_SP SP IDATA
        CFI StackFrame CFA_PSP16 PSP16 XDATA
        CFI StackFrame CFA_XSP16 XSP16 XDATA
        CFI StaticOverlayFrame CFA_IOVERLAY IOVERLAY
        CFI StaticOverlayFrame CFA_DOVERLAY DOVERLAY
        CFI Resource `PSW.CY`:1, `B.BR0`:1, `B.BR1`:1, `B.BR2`:1, `B.BR3`:1
        CFI Resource `B.BR4`:1, `B.BR5`:1, `B.BR6`:1, `B.BR7`:1, `VB.BR8`:1
        CFI Resource `VB.BR9`:1, `VB.BR10`:1, `VB.BR11`:1, `VB.BR12`:1
        CFI Resource `VB.BR13`:1, `VB.BR14`:1, `VB.BR15`:1, VB:8, B:8, A:8
        CFI Resource PSW:8, DPL0:8, DPH0:8, R0:8, R1:8, R2:8, R3:8, R4:8, R5:8
        CFI Resource R6:8, R7:8, V0:8, V1:8, V2:8, V3:8, V4:8, V5:8, V6:8, V7:8
        CFI Resource V8:8, V9:8, V10:8, V11:8, V12:8, V13:8, V14:8, V15:8, SP:8
        CFI Resource PSPH:8, PSPL:8, PSP16:16, XSPH:8, XSPL:8, XSP16:16
        CFI VirtualResource ?RET:24
        CFI Resource ?BRET_EXT:8
        CFI VirtualResource ?RET_HIGH:8, ?RET_LOW:8
        CFI ResourceParts PSP16 PSPH, PSPL
        CFI ResourceParts XSP16 XSPH, XSPL
        CFI ResourceParts ?RET ?BRET_EXT, ?RET_HIGH, ?RET_LOW
        CFI EndNames cfiNames0
        
        CFI Common cfiCommon0 Using cfiNames0
        CFI CodeAlign 1
        CFI DataAlign -1
        CFI ReturnAddress ?RET CODE
        CFI CFA_DOVERLAY Used
        CFI CFA_IOVERLAY Used
        CFI CFA_SP SP+-3
        CFI CFA_PSP16 PSP16+0
        CFI CFA_XSP16 XSP16+0
        CFI `PSW.CY` SameValue
        CFI `B.BR0` SameValue
        CFI `B.BR1` SameValue
        CFI `B.BR2` SameValue
        CFI `B.BR3` SameValue
        CFI `B.BR4` SameValue
        CFI `B.BR5` SameValue
        CFI `B.BR6` SameValue
        CFI `B.BR7` SameValue
        CFI `VB.BR8` SameValue
        CFI `VB.BR9` SameValue
        CFI `VB.BR10` SameValue
        CFI `VB.BR11` SameValue
        CFI `VB.BR12` SameValue
        CFI `VB.BR13` SameValue
        CFI `VB.BR14` SameValue
        CFI `VB.BR15` SameValue
        CFI VB SameValue
        CFI B Undefined
        CFI A Undefined
        CFI PSW SameValue
        CFI DPL0 SameValue
        CFI DPH0 SameValue
        CFI R0 Undefined
        CFI R1 Undefined
        CFI R2 Undefined
        CFI R3 Undefined
        CFI R4 Undefined
        CFI R5 Undefined
        CFI R6 SameValue
        CFI R7 SameValue
        CFI V0 SameValue
        CFI V1 SameValue
        CFI V2 SameValue
        CFI V3 SameValue
        CFI V4 SameValue
        CFI V5 SameValue
        CFI V6 SameValue
        CFI V7 SameValue
        CFI V8 SameValue
        CFI V9 SameValue
        CFI V10 SameValue
        CFI V11 SameValue
        CFI V12 SameValue
        CFI V13 SameValue
        CFI V14 SameValue
        CFI V15 SameValue
        CFI PSPH Undefined
        CFI PSPL Undefined
        CFI XSPH Undefined
        CFI XSPL Undefined
        CFI ?RET Concat
        CFI ?BRET_EXT Frame(CFA_SP, 3)
        CFI ?RET_HIGH Frame(CFA_SP, 2)
        CFI ?RET_LOW Frame(CFA_SP, 1)
        CFI EndCommon cfiCommon0
        
        
        CFI Common cfiCommon1 Using cfiNames0
        CFI CodeAlign 1
        CFI DataAlign -1
        CFI ReturnAddress ?RET CODE
        CFI CFA_DOVERLAY Used
        CFI CFA_IOVERLAY Used
        CFI CFA_SP SP+-2
        CFI CFA_PSP16 PSP16+0
        CFI CFA_XSP16 XSP16+0
        CFI `PSW.CY` SameValue
        CFI `B.BR0` SameValue
        CFI `B.BR1` SameValue
        CFI `B.BR2` SameValue
        CFI `B.BR3` SameValue
        CFI `B.BR4` SameValue
        CFI `B.BR5` SameValue
        CFI `B.BR6` SameValue
        CFI `B.BR7` SameValue
        CFI `VB.BR8` SameValue
        CFI `VB.BR9` SameValue
        CFI `VB.BR10` SameValue
        CFI `VB.BR11` SameValue
        CFI `VB.BR12` SameValue
        CFI `VB.BR13` SameValue
        CFI `VB.BR14` SameValue
        CFI `VB.BR15` SameValue
        CFI VB SameValue
        CFI B SameValue
        CFI A SameValue
        CFI PSW SameValue
        CFI DPL0 SameValue
        CFI DPH0 SameValue
        CFI R0 SameValue
        CFI R1 SameValue
        CFI R2 SameValue
        CFI R3 SameValue
        CFI R4 SameValue
        CFI R5 SameValue
        CFI R6 SameValue
        CFI R7 SameValue
        CFI V0 SameValue
        CFI V1 SameValue
        CFI V2 SameValue
        CFI V3 SameValue
        CFI V4 SameValue
        CFI V5 SameValue
        CFI V6 SameValue
        CFI V7 SameValue
        CFI V8 SameValue
        CFI V9 SameValue
        CFI V10 SameValue
        CFI V11 SameValue
        CFI V12 SameValue
        CFI V13 SameValue
        CFI V14 SameValue
        CFI V15 SameValue
        CFI PSPH Undefined
        CFI PSPL Undefined
        CFI XSPH Undefined
        CFI XSPL Undefined
        CFI ?RET Concat
        CFI ?BRET_EXT SameValue
        CFI ?RET_HIGH Frame(CFA_SP, 2)
        CFI ?RET_LOW Frame(CFA_SP, 1)
        CFI EndCommon cfiCommon1
        
afRegister          SYMBOL "afRegister"
HalUARTOpen         SYMBOL "HalUARTOpen"
osal_msg_receive    SYMBOL "osal_msg_receive"
osal_msg_deallocate SYMBOL "osal_msg_deallocate"
HalUARTRead         SYMBOL "HalUARTRead"
HalUARTWrite        SYMBOL "HalUARTWrite"
AF_DataRequest      SYMBOL "AF_DataRequest"
osal_memcpy         SYMBOL "osal_memcpy"
??AF_DataRequest?relay SYMBOL "?relay", AF_DataRequest
??HalUARTOpen?relay SYMBOL "?relay", HalUARTOpen
??HalUARTRead?relay SYMBOL "?relay", HalUARTRead
??HalUARTWrite?relay SYMBOL "?relay", HalUARTWrite
??afRegister?relay  SYMBOL "?relay", afRegister
??osal_memcpy?relay SYMBOL "?relay", osal_memcpy
??osal_msg_deallocate?relay SYMBOL "?relay", osal_msg_deallocate
??osal_msg_receive?relay SYMBOL "?relay", osal_msg_receive
GenericApp_Init     SYMBOL "GenericApp_Init"
??GenericApp_Init?relay SYMBOL "?relay", GenericApp_Init
GenericApp_MessageMSGCB SYMBOL "GenericApp_MessageMSGCB"
??GenericApp_MessageMSGCB?relay SYMBOL "?relay", GenericApp_MessageMSGCB
GenericApp_ProcessEvent SYMBOL "GenericApp_ProcessEvent"
??GenericApp_ProcessEvent?relay SYMBOL "?relay", GenericApp_ProcessEvent
GenericApp_SendTheMessage SYMBOL "GenericApp_SendTheMessage"
??GenericApp_SendTheMessage?relay SYMBOL "?relay", GenericApp_SendTheMessage

        EXTERN afRegister
        FUNCTION afRegister,0202H
        ARGFRAME ISTACK, 2, STACK
        ARGFRAME PSTACK, 0, STACK
        ARGFRAME XSTACK, 29, STACK
        ARGFRAME IOVERLAY, 0, STATIC
        ARGFRAME DOVERLAY, 0, STATIC
        EXTERN HalUARTOpen
        FUNCTION HalUARTOpen,0202H
        ARGFRAME ISTACK, 2, STACK
        ARGFRAME PSTACK, 0, STACK
        ARGFRAME XSTACK, 29, STACK
        ARGFRAME IOVERLAY, 0, STATIC
        ARGFRAME DOVERLAY, 0, STATIC
        EXTERN osal_msg_receive
        FUNCTION osal_msg_receive,0202H
        ARGFRAME ISTACK, 0, STACK
        ARGFRAME PSTACK, 0, STACK
        ARGFRAME XSTACK, 12, STACK
        ARGFRAME IOVERLAY, 0, STATIC
        ARGFRAME DOVERLAY, 0, STATIC
        EXTERN osal_msg_deallocate
        FUNCTION osal_msg_deallocate,0202H
        ARGFRAME ISTACK, 0, STACK
        ARGFRAME PSTACK, 0, STACK
        ARGFRAME XSTACK, 12, STACK
        ARGFRAME IOVERLAY, 0, STATIC
        ARGFRAME DOVERLAY, 0, STATIC
        EXTERN HalUARTRead
        FUNCTION HalUARTRead,0202H
        ARGFRAME ISTACK, 2, STACK
        ARGFRAME PSTACK, 0, STACK
        ARGFRAME XSTACK, 80, STACK
        ARGFRAME IOVERLAY, 0, STATIC
        ARGFRAME DOVERLAY, 0, STATIC
        EXTERN HalUARTWrite
        FUNCTION HalUARTWrite,0202H
        ARGFRAME ISTACK, 2, STACK
        ARGFRAME PSTACK, 0, STACK
        ARGFRAME XSTACK, 80, STACK
        ARGFRAME IOVERLAY, 0, STATIC
        ARGFRAME DOVERLAY, 0, STATIC
        EXTERN AF_DataRequest
        FUNCTION AF_DataRequest,0202H
        ARGFRAME ISTACK, 0, STACK
        ARGFRAME PSTACK, 0, STACK
        ARGFRAME XSTACK, 32, STACK
        ARGFRAME IOVERLAY, 0, STATIC
        ARGFRAME DOVERLAY, 0, STATIC
        EXTERN osal_memcpy
        FUNCTION osal_memcpy,0202H
        ARGFRAME ISTACK, 0, STACK
        ARGFRAME PSTACK, 0, STACK
        ARGFRAME XSTACK, 31, STACK
        ARGFRAME IOVERLAY, 0, STATIC
        ARGFRAME DOVERLAY, 0, STATIC
        EXTERN ??AF_DataRequest?relay
        FUNCTION ??AF_DataRequest?relay,00H
        EXTERN ??HalUARTOpen?relay
        FUNCTION ??HalUARTOpen?relay,00H
        EXTERN ??HalUARTRead?relay
        FUNCTION ??HalUARTRead?relay,00H
        EXTERN ??HalUARTWrite?relay
        FUNCTION ??HalUARTWrite?relay,00H
        EXTERN ??afRegister?relay
        FUNCTION ??afRegister?relay,00H
        EXTERN ??osal_memcpy?relay
        FUNCTION ??osal_memcpy?relay,00H
        EXTERN ??osal_msg_deallocate?relay
        FUNCTION ??osal_msg_deallocate?relay,00H
        EXTERN ??osal_msg_receive?relay
        FUNCTION ??osal_msg_receive?relay,00H

// D:\Texas Instruments\ZStack-CC2530-2.3.0-1.4.0\Projects\zstack\Samples\Te\Source\Coordinator.c
//    1 #include "OSAL.h"
//    2 #include "AF.h"
//    3 #include "ZDApp.h"
//    4 #include "ZDObject.h"
//    5 #include "ZDProfile.h"
//    6 #include "Common.h"
//    7 #include "DebugTrace.h"
//    8 
//    9 #if!defined(WIN32)
//   10  #include "OnBoard.h"
//   11 #endif
//   12 
//   13 /* Hal */
//   14 #include "hal_lcd.h"
//   15 #include "hal_led.h"
//   16 #include "hal_key.h"
//   17 #include "hal_uart.h"
//   18 #include "OSAL_Nv.h"
//   19 

        RSEG XDATA_ROM_C:CONST:REORDER:NOROOT(0)
        DATA
//   20 const cId_t GenericApp_ClusterList[GENERICAPP_MAX_CLUSTERS]=
GenericApp_ClusterList:
        DW 1
//   21 {
//   22   GENERICAPP_CLUSTERID
//   23 };
//   24 

        RSEG XDATA_ROM_C:CONST:REORDER:NOROOT(0)
        DATA
//   25 const SimpleDescriptionFormat_t GenericApp_SimpleDesc =
GenericApp_SimpleDesc:
        DB 10
        DW 3844, 1
        DB 0, 1
        DW GenericApp_ClusterList
        DB 0
        DW 0H
//   26 {
//   27   GENERICAPP_ENDPOINT,
//   28   GENERICAPP_PROFID,
//   29   GENERICAPP_DEVICEID,
//   30   GENERICAPP_DEVICE_VERSION,
//   31   GENERICAPP_FLAGS,
//   32   GENERICAPP_MAX_CLUSTERS,
//   33   (cId_t*)GenericApp_ClusterList,
//   34   0,
//   35   (cId_t *)NULL
//   36 };
//   37 

        RSEG XDATA_Z:XDATA:NOROOT(0)
//   38   static uint8 SerialApp_TxLen;
SerialApp_TxLen:
        DS 1
        REQUIRE __INIT_XDATA_Z

        RSEG XDATA_Z:XDATA:NOROOT(0)
//   39   endPointDesc_t GenericApp_epDesc;
GenericApp_epDesc:
        DS 6
        REQUIRE __INIT_XDATA_Z

        RSEG XDATA_Z:XDATA:NOROOT(0)
//   40   byte GenericApp_TaskID;
GenericApp_TaskID:
        DS 1
        REQUIRE __INIT_XDATA_Z

        RSEG XDATA_Z:XDATA:NOROOT(0)
//   41   byte GenericApp_TransID; 
GenericApp_TransID:
        DS 1
        REQUIRE __INIT_XDATA_Z
//   42   static void rxCB(uint8 port,uint8 event);
//   43   
//   44   void GenericApp_MessageMSGCB(afIncomingMSGPacket_t *pkt);
//   45   void GenericApp_SendTheMessage(unsigned char theMessageData);
//   46   

        RSEG BANKED_CODE:CODE:NOROOT(0)
//   47   void GenericApp_Init(byte task_id) 
GenericApp_Init:
        CFI Block cfiBlock0 Using cfiCommon0
        CFI Function GenericApp_Init
//   48   {
        FUNCALL GenericApp_Init, afRegister
        LOCFRAME ISTACK, 2, STACK
        LOCFRAME PSTACK, 0, STACK
        LOCFRAME XSTACK, 29, STACK
        LOCFRAME IOVERLAY, 0, STATIC
        LOCFRAME DOVERLAY, 0, STATIC
        ARGFRAME ISTACK, 2, STACK
        ARGFRAME PSTACK, 0, STACK
        ARGFRAME XSTACK, 29, STACK
        ARGFRAME IOVERLAY, 0, STATIC
        ARGFRAME DOVERLAY, 0, STATIC
        FUNCALL GenericApp_Init, HalUARTOpen
        LOCFRAME ISTACK, 2, STACK
        LOCFRAME PSTACK, 0, STACK
        LOCFRAME XSTACK, 29, STACK
        LOCFRAME IOVERLAY, 0, STATIC
        LOCFRAME DOVERLAY, 0, STATIC
        ARGFRAME ISTACK, 2, STACK
        ARGFRAME PSTACK, 0, STACK
        ARGFRAME XSTACK, 29, STACK
        ARGFRAME IOVERLAY, 0, STATIC
        ARGFRAME DOVERLAY, 0, STATIC
        PUSH    DPL
        CFI DPL0 Frame(CFA_SP, 4)
        CFI CFA_SP SP+-4
        PUSH    DPH
        CFI DPH0 Frame(CFA_SP, 5)
        CFI CFA_SP SP+-5
        ; Saved register size: 2
        ; Auto size: 29
        MOV     A,#-0x1d
        LCALL   ?ALLOC_XSTACK8
        CFI CFA_XSP16 add(XSP16, 29)
//   49     halUARTCfg_t uartConfig;
//   50     GenericApp_TaskID=task_id;
        MOV     A,R1
        MOV     DPTR,#GenericApp_TaskID
        MOVX    @DPTR,A
//   51     GenericApp_TransID=0;
        CLR     A
        MOV     DPTR,#GenericApp_TransID
        MOVX    @DPTR,A
//   52     
//   53     GenericApp_epDesc.endPoint = GENERICAPP_ENDPOINT;
        MOV     A,#0xa
        MOV     DPTR,#GenericApp_epDesc
        MOVX    @DPTR,A
//   54     GenericApp_epDesc.task_id = &GenericApp_TaskID;
        MOV     DPTR,#(GenericApp_epDesc + 1)
        MOV     A,#(GenericApp_TaskID & 0xff)
        MOVX    @DPTR,A
        INC     DPTR
        MOV     A,#((GenericApp_TaskID >> 8) & 0xff)
        MOVX    @DPTR,A
//   55     GenericApp_epDesc.simpleDesc
//   56               =(SimpleDescriptionFormat_t *)&GenericApp_SimpleDesc;
        MOV     DPTR,#(GenericApp_epDesc + 3)
        MOV     A,#(GenericApp_SimpleDesc & 0xff)
        MOVX    @DPTR,A
        INC     DPTR
        MOV     A,#((GenericApp_SimpleDesc >> 8) & 0xff)
        MOVX    @DPTR,A
//   57     GenericApp_epDesc.latencyReq = noLatencyReqs;
        CLR     A
        MOV     DPTR,#(GenericApp_epDesc + 5)
        MOVX    @DPTR,A
//   58     afRegister(&GenericApp_epDesc);
        ; Setup parameters for call to function afRegister
        MOV     R2,#(GenericApp_epDesc & 0xff)
        MOV     R3,#((GenericApp_epDesc >> 8) & 0xff)
        LCALL   ??afRegister?relay
//   59     
//   60     uartConfig.configured = TRUE;
        MOV     A,#0x1
        MOV     DPL,?XSP + 0
        MOV     DPH,?XSP + 1
        MOVX    @DPTR,A
//   61     uartConfig.baudRate = HAL_UART_BR_115200;
        LCALL   ?XSTACK_DISP0_8
        MOV     A,#0x4
        MOVX    @DPTR,A
//   62     uartConfig.flowControl = FALSE;
        MOV     A,#0x2
        LCALL   ?XSTACK_DISP0_8
        CLR     A
        MOVX    @DPTR,A
//   63 	uartConfig.flowControlThreshold=64;
        MOV     A,#0x3
        LCALL   ?XSTACK_DISP0_8
        MOV     A,#0x40
        MOVX    @DPTR,A
        INC     DPTR
        CLR     A
        MOVX    @DPTR,A
//   64 	uartConfig.rx.maxBufSize=128;
        MOV     A,#0xa
        LCALL   ?XSTACK_DISP0_8
        MOV     A,#-0x80
        MOVX    @DPTR,A
        INC     DPTR
        CLR     A
        MOVX    @DPTR,A
//   65 	uartConfig.tx.maxBufSize=128;
        MOV     A,#0x12
        LCALL   ?XSTACK_DISP0_8
        MOV     A,#-0x80
        MOVX    @DPTR,A
        INC     DPTR
        CLR     A
        MOVX    @DPTR,A
//   66 	uartConfig.idleTimeout=6;
        MOV     A,#0x5
        LCALL   ?XSTACK_DISP0_8
        MOV     A,#0x6
        MOVX    @DPTR,A
//   67 	uartConfig.intEnable=TRUE;
        MOV     A,#0x16
        LCALL   ?XSTACK_DISP0_8
        MOV     A,#0x1
        MOVX    @DPTR,A
//   68     uartConfig.callBackFunc = rxCB;
        MOV     A,#0x1b
        LCALL   ?XSTACK_DISP0_8
        MOV     A,#(??rxCB?relay & 0xff)
        MOVX    @DPTR,A
        INC     DPTR
        MOV     A,#((??rxCB?relay >> 8) & 0xff)
        MOVX    @DPTR,A
//   69 
//   70     HalUARTOpen(0,&uartConfig);
        ; Setup parameters for call to function HalUARTOpen
        MOV     DPL,?XSP + 0
        MOV     DPH,?XSP + 1
        MOV     R2,DPL
        MOV     R3,DPH
        MOV     R1,#0x0
        LCALL   ??HalUARTOpen?relay
//   71   }
        MOV     A,#0x1d
        CFI EndBlock cfiBlock0
        REQUIRE ?Subroutine2
        ; // Fall through to label ?Subroutine2

        RSEG BANKED_CODE:CODE:NOROOT(0)
?Subroutine2:
        CFI Block cfiBlock1 Using cfiCommon0
        CFI NoFunction
        CFI CFA_SP SP+-5
        CFI CFA_XSP16 add(XSP16, 29)
        CFI DPL0 Frame(CFA_SP, 4)
        CFI DPH0 Frame(CFA_SP, 5)
        CFI Invalid
        LCALL   ?DEALLOC_XSTACK8
        CFI CFA_XSP16 XSP16+0
        CFI Valid
        POP     DPH
        CFI CFA_SP SP+-4
        CFI DPH0 SameValue
        POP     DPL
        CFI CFA_SP SP+-3
        CFI DPL0 SameValue
        LJMP    ?BRET
        CFI EndBlock cfiBlock1
//   72   

        RSEG BANKED_CODE:CODE:NOROOT(0)
//   73   UINT16 GenericApp_ProcessEvent(byte task_id,UINT16 events)
GenericApp_ProcessEvent:
        CFI Block cfiBlock2 Using cfiCommon0
        CFI Function GenericApp_ProcessEvent
//   74   {
        FUNCALL GenericApp_ProcessEvent, osal_msg_receive
        LOCFRAME ISTACK, 0, STACK
        LOCFRAME PSTACK, 0, STACK
        LOCFRAME XSTACK, 12, STACK
        LOCFRAME IOVERLAY, 0, STATIC
        LOCFRAME DOVERLAY, 0, STATIC
        ARGFRAME ISTACK, 0, STACK
        ARGFRAME PSTACK, 0, STACK
        ARGFRAME XSTACK, 12, STACK
        ARGFRAME IOVERLAY, 0, STATIC
        ARGFRAME DOVERLAY, 0, STATIC
        FUNCALL GenericApp_ProcessEvent, GenericApp_MessageMSGCB
        LOCFRAME ISTACK, 0, STACK
        LOCFRAME PSTACK, 0, STACK
        LOCFRAME XSTACK, 12, STACK
        LOCFRAME IOVERLAY, 0, STATIC
        LOCFRAME DOVERLAY, 0, STATIC
        ARGFRAME ISTACK, 0, STACK
        ARGFRAME PSTACK, 0, STACK
        ARGFRAME XSTACK, 12, STACK
        ARGFRAME IOVERLAY, 0, STATIC
        ARGFRAME DOVERLAY, 0, STATIC
        FUNCALL GenericApp_ProcessEvent, osal_msg_deallocate
        LOCFRAME ISTACK, 0, STACK
        LOCFRAME PSTACK, 0, STACK
        LOCFRAME XSTACK, 12, STACK
        LOCFRAME IOVERLAY, 0, STATIC
        LOCFRAME DOVERLAY, 0, STATIC
        ARGFRAME ISTACK, 0, STACK
        ARGFRAME PSTACK, 0, STACK
        ARGFRAME XSTACK, 12, STACK
        ARGFRAME IOVERLAY, 0, STATIC
        ARGFRAME DOVERLAY, 0, STATIC
        FUNCALL GenericApp_ProcessEvent, osal_msg_receive
        LOCFRAME ISTACK, 0, STACK
        LOCFRAME PSTACK, 0, STACK
        LOCFRAME XSTACK, 12, STACK
        LOCFRAME IOVERLAY, 0, STATIC
        LOCFRAME DOVERLAY, 0, STATIC
        ARGFRAME ISTACK, 0, STACK
        ARGFRAME PSTACK, 0, STACK
        ARGFRAME XSTACK, 12, STACK
        ARGFRAME IOVERLAY, 0, STATIC
        ARGFRAME DOVERLAY, 0, STATIC
        MOV     A,#-0xc
        LCALL   ?BANKED_ENTER_XDATA
        CFI DPH0 load(1, XDATA, add(CFA_XSP16, literal(-1)))
        CFI DPL0 load(1, XDATA, add(CFA_XSP16, literal(-2)))
        CFI ?BRET_EXT load(1, XDATA, add(CFA_XSP16, literal(-3)))
        CFI ?RET_HIGH load(1, XDATA, add(CFA_XSP16, literal(-4)))
        CFI ?RET_LOW load(1, XDATA, add(CFA_XSP16, literal(-5)))
        CFI R7 load(1, XDATA, add(CFA_XSP16, literal(-6)))
        CFI V3 load(1, XDATA, add(CFA_XSP16, literal(-7)))
        CFI V2 load(1, XDATA, add(CFA_XSP16, literal(-8)))
        CFI V1 load(1, XDATA, add(CFA_XSP16, literal(-9)))
        CFI V0 load(1, XDATA, add(CFA_XSP16, literal(-10)))
        CFI VB load(1, XDATA, add(CFA_XSP16, literal(-11)))
        CFI R6 load(1, XDATA, add(CFA_XSP16, literal(-12)))
        CFI CFA_SP SP+0
        CFI CFA_XSP16 add(XSP16, 12)
        ; Saved register size: 12
        ; Auto size: 0
        MOV     ?V0 + 0,R2
        MOV     ?V0 + 1,R3
//   75    afIncomingMSGPacket_t *MSGpkt;
//   76   if(events & SYS_EVENT_MSG)
        MOV     A,#-0x80
        ANL     A,?V0 + 1
        MOV     R1,A
        CLR     A
        JNZ     ??GenericApp_ProcessEvent_0
        MOV     A,R1
??GenericApp_ProcessEvent_0:
        JZ      ??GenericApp_ProcessEvent_1
//   77   {
//   78     MSGpkt=(afIncomingMSGPacket_t *)osal_msg_receive(GenericApp_TaskID);
        ; Setup parameters for call to function osal_msg_receive
        SJMP    ??GenericApp_ProcessEvent_2
//   79     while(MSGpkt)
//   80     {
//   81       switch(MSGpkt->hdr.event)
??GenericApp_ProcessEvent_3:
        MOV     DPL,R6
        MOV     DPH,R7
        MOVX    A,@DPTR
        XRL     A,#0x1a
        JNZ     ??GenericApp_ProcessEvent_4
//   82       {
//   83       case AF_INCOMING_MSG_CMD:
//   84         GenericApp_MessageMSGCB(MSGpkt);
        ; Setup parameters for call to function GenericApp_MessageMSGCB
        MOV     A,R6
        MOV     R2,A
        MOV     A,R7
        MOV     R3,A
        LCALL   ??GenericApp_MessageMSGCB?relay
//   85         break;
//   86         
//   87       default:
//   88         break;
//   89       }
//   90       osal_msg_deallocate((uint8 *)MSGpkt);
??GenericApp_ProcessEvent_4:
        ; Setup parameters for call to function osal_msg_deallocate
        MOV     A,R6
        MOV     R2,A
        MOV     A,R7
        MOV     R3,A
        LCALL   ??osal_msg_deallocate?relay
//   91       MSGpkt=(afIncomingMSGPacket_t *)osal_msg_receive(GenericApp_TaskID);
        ; Setup parameters for call to function osal_msg_receive
??GenericApp_ProcessEvent_2:
        MOV     DPTR,#GenericApp_TaskID
        MOVX    A,@DPTR
        MOV     R1,A
        LCALL   ??osal_msg_receive?relay
        MOV     ?V0 + 2,R2
        MOV     ?V0 + 3,R3
        MOV     R6,?V0 + 2
        MOV     R7,?V0 + 3
//   92     }
        MOV     A,R6
        JNZ     ??GenericApp_ProcessEvent_5
        MOV     A,R7
??GenericApp_ProcessEvent_5:
        JNZ     ??GenericApp_ProcessEvent_3
//   93     return(events ^ SYS_EVENT_MSG);
        MOV     R2,?V0 + 0
        MOV     A,#-0x80
        XRL     A,?V0 + 1
        MOV     R3,A
        SJMP    ??GenericApp_ProcessEvent_6
//   94   }
//   95     return 0;
??GenericApp_ProcessEvent_1:
        MOV     R2,#0x0
        MOV     R3,#0x0
??GenericApp_ProcessEvent_6:
        MOV     R7,#0x4
        LJMP    ?BANKED_LEAVE_XDATA
        CFI EndBlock cfiBlock2
//   96   }
//   97   

        RSEG BANKED_CODE:CODE:NOROOT(0)
//   98 static void rxCB(uint8 port,uint8 enent)
rxCB:
        CFI Block cfiBlock3 Using cfiCommon0
        CFI Function rxCB
//   99 {
        FUNCALL rxCB, HalUARTRead
        LOCFRAME ISTACK, 2, STACK
        LOCFRAME PSTACK, 0, STACK
        LOCFRAME XSTACK, 80, STACK
        LOCFRAME IOVERLAY, 0, STATIC
        LOCFRAME DOVERLAY, 0, STATIC
        ARGFRAME ISTACK, 2, STACK
        ARGFRAME PSTACK, 0, STACK
        ARGFRAME XSTACK, 80, STACK
        ARGFRAME IOVERLAY, 0, STATIC
        ARGFRAME DOVERLAY, 0, STATIC
        FUNCALL rxCB, HalUARTWrite
        LOCFRAME ISTACK, 2, STACK
        LOCFRAME PSTACK, 0, STACK
        LOCFRAME XSTACK, 80, STACK
        LOCFRAME IOVERLAY, 0, STATIC
        LOCFRAME DOVERLAY, 0, STATIC
        ARGFRAME ISTACK, 2, STACK
        ARGFRAME PSTACK, 0, STACK
        ARGFRAME XSTACK, 80, STACK
        ARGFRAME IOVERLAY, 0, STATIC
        ARGFRAME DOVERLAY, 0, STATIC
        FUNCALL rxCB, GenericApp_SendTheMessage
        LOCFRAME ISTACK, 2, STACK
        LOCFRAME PSTACK, 0, STACK
        LOCFRAME XSTACK, 80, STACK
        LOCFRAME IOVERLAY, 0, STATIC
        LOCFRAME DOVERLAY, 0, STATIC
        ARGFRAME ISTACK, 2, STACK
        ARGFRAME PSTACK, 0, STACK
        ARGFRAME XSTACK, 80, STACK
        ARGFRAME IOVERLAY, 0, STATIC
        ARGFRAME DOVERLAY, 0, STATIC
        FUNCALL rxCB, GenericApp_SendTheMessage
        LOCFRAME ISTACK, 2, STACK
        LOCFRAME PSTACK, 0, STACK
        LOCFRAME XSTACK, 80, STACK
        LOCFRAME IOVERLAY, 0, STATIC
        LOCFRAME DOVERLAY, 0, STATIC
        ARGFRAME ISTACK, 2, STACK
        ARGFRAME PSTACK, 0, STACK
        ARGFRAME XSTACK, 80, STACK
        ARGFRAME IOVERLAY, 0, STATIC
        ARGFRAME DOVERLAY, 0, STATIC
        PUSH    DPL
        CFI DPL0 Frame(CFA_SP, 4)
        CFI CFA_SP SP+-4
        PUSH    DPH
        CFI DPH0 Frame(CFA_SP, 5)
        CFI CFA_SP SP+-5
        ; Saved register size: 2
        ; Auto size: 80
        MOV     A,#-0x50
        LCALL   ?ALLOC_XSTACK8
        CFI CFA_XSP16 add(XSP16, 80)
//  100   unsigned char Uartbuf[80];
//  101   if((enent&(HAL_UART_RX_FULL|HAL_UART_RX_ABOUT_FULL|HAL_UART_RX_TIMEOUT))&&
//  102 #if SERIAL_APP_LOOPBACK
//  103     (SerialApp_Txlen<SERIAL_APP_TX_MAX))
//  104 #else 
//  105     !SerialApp_TxLen)
        MOV     A,#0x7
        ANL     A,R2
        JZ      ??rxCB_0
        MOV     DPTR,#SerialApp_TxLen
        MOVX    A,@DPTR
        JNZ     ??rxCB_0
//  106 #endif
//  107     {
//  108         SerialApp_TxLen=HalUARTRead(0,Uartbuf,80);
        ; Setup parameters for call to function HalUARTRead
        MOV     R4,#0x50
        MOV     R5,#0x0
        MOV     DPL,?XSP + 0
        MOV     DPH,?XSP + 1
        MOV     R2,DPL
        MOV     R3,DPH
        MOV     R1,#0x0
        LCALL   ??HalUARTRead?relay
        MOV     A,R2
        MOV     DPTR,#SerialApp_TxLen
        MOVX    @DPTR,A
//  109 	if(SerialApp_TxLen)
        JZ      ??rxCB_0
//  110 	{
//  111 	HalUARTWrite(0,Uartbuf,1);
        ; Setup parameters for call to function HalUARTWrite
        MOV     R4,#0x1
        MOV     R5,#0x0
        MOV     DPL,?XSP + 0
        MOV     DPH,?XSP + 1
        MOV     R2,DPL
        MOV     R3,DPH
        MOV     R1,#0x0
        LCALL   ??HalUARTWrite?relay
//  112 	if(Uartbuf[0]=='0')
        MOV     DPL,?XSP + 0
        MOV     DPH,?XSP + 1
        MOVX    A,@DPTR
        XRL     A,#0x30
        JNZ     ??rxCB_1
//  113 	GenericApp_SendTheMessage('1');
        ; Setup parameters for call to function GenericApp_SendTheMessage
        MOV     R1,#0x31
        SJMP    ??rxCB_2
//  114 	else if(Uartbuf[0]=='1')
??rxCB_1:
        MOVX    A,@DPTR
        XRL     A,#0x31
        JNZ     ??rxCB_3
//  115 	GenericApp_SendTheMessage('0');
        ; Setup parameters for call to function GenericApp_SendTheMessage
        MOV     R1,#0x30
??rxCB_2:
        LCALL   ??GenericApp_SendTheMessage?relay
//  116         SerialApp_TxLen=0;
??rxCB_3:
        CLR     A
        MOV     DPTR,#SerialApp_TxLen
        MOVX    @DPTR,A
//  117 	}
//  118     }
//  119 }
??rxCB_0:
        MOV     A,#0x50
        LJMP    ?Subroutine2 & 0xFFFF
        CFI EndBlock cfiBlock3

        RSEG BANKED_CODE:CODE:NOROOT(0)
//  120 void GenericApp_SendTheMessage(unsigned char theMessageData)
GenericApp_SendTheMessage:
        CFI Block cfiBlock4 Using cfiCommon0
        CFI Function GenericApp_SendTheMessage
//  121 {
        FUNCALL GenericApp_SendTheMessage, AF_DataRequest
        LOCFRAME ISTACK, 0, STACK
        LOCFRAME PSTACK, 0, STACK
        LOCFRAME XSTACK, 32, STACK
        LOCFRAME IOVERLAY, 0, STATIC
        LOCFRAME DOVERLAY, 0, STATIC
        ARGFRAME ISTACK, 0, STACK
        ARGFRAME PSTACK, 0, STACK
        ARGFRAME XSTACK, 32, STACK
        ARGFRAME IOVERLAY, 0, STATIC
        ARGFRAME DOVERLAY, 0, STATIC
        MOV     A,#-0xa
        LCALL   ?BANKED_ENTER_XDATA
        CFI DPH0 load(1, XDATA, add(CFA_XSP16, literal(-1)))
        CFI DPL0 load(1, XDATA, add(CFA_XSP16, literal(-2)))
        CFI ?BRET_EXT load(1, XDATA, add(CFA_XSP16, literal(-3)))
        CFI ?RET_HIGH load(1, XDATA, add(CFA_XSP16, literal(-4)))
        CFI ?RET_LOW load(1, XDATA, add(CFA_XSP16, literal(-5)))
        CFI R7 load(1, XDATA, add(CFA_XSP16, literal(-6)))
        CFI V1 load(1, XDATA, add(CFA_XSP16, literal(-7)))
        CFI V0 load(1, XDATA, add(CFA_XSP16, literal(-8)))
        CFI VB load(1, XDATA, add(CFA_XSP16, literal(-9)))
        CFI R6 load(1, XDATA, add(CFA_XSP16, literal(-10)))
        CFI CFA_SP SP+0
        CFI CFA_XSP16 add(XSP16, 10)
        ; Saved register size: 10
        ; Auto size: 13
        MOV     A,#-0xd
        LCALL   ?ALLOC_XSTACK8
        CFI CFA_XSP16 add(XSP16, 23)
        MOV     A,R1
        MOV     DPL,?XSP + 0
        MOV     DPH,?XSP + 1
        MOVX    @DPTR,A
//  122 afAddrType_t my_DstAddr;
//  123 my_DstAddr.addrMode=(afAddrMode_t)Addr16Bit;
        MOV     A,#0x9
        LCALL   ?XSTACK_DISP0_8
        MOV     A,#0x2
        MOVX    @DPTR,A
//  124 my_DstAddr.endPoint=GENERICAPP_ENDPOINT;
        MOV     A,#0xa
        LCALL   ?XSTACK_DISP0_8
        MOV     A,#0xa
        MOVX    @DPTR,A
//  125 my_DstAddr.addr.shortAddr=0xFFFF;
        MOV     A,#0x1
        LCALL   ?XSTACK_DISP0_8
        MOV     A,#-0x1
        MOVX    @DPTR,A
        INC     DPTR
        MOVX    @DPTR,A
//  126 
//  127 AF_DataRequest(&my_DstAddr
//  128 ,&GenericApp_epDesc
//  129 ,GENERICAPP_CLUSTERID
//  130 ,1
//  131 ,&theMessageData
//  132 ,&GenericApp_TransID
//  133 ,AF_DISCV_ROUTE
//  134 ,AF_DEFAULT_RADIUS);
        ; Setup parameters for call to function AF_DataRequest
        MOV     ?V0 + 0,#0x1e
        MOV     R0,#?V0 + 0
        LCALL   ?PUSH_XSTACK_I_ONE
        CFI CFA_XSP16 add(XSP16, 24)
        MOV     ?V0 + 0,#(GenericApp_TransID & 0xff)
        MOV     ?V0 + 1,#((GenericApp_TransID >> 8) & 0xff)
        MOV     R0,#?V0 + 0
        LCALL   ?PUSH_XSTACK_I_TWO
        CFI CFA_XSP16 add(XSP16, 26)
        MOV     A,#0x3
        LCALL   ?XSTACK_DISP0_8
        MOV     ?V0 + 0,DPL
        MOV     ?V0 + 1,DPH
        MOV     R0,#?V0 + 0
        LCALL   ?PUSH_XSTACK_I_TWO
        CFI CFA_XSP16 add(XSP16, 28)
        MOV     ?V0 + 0,#0x1
        MOV     ?V0 + 1,#0x0
        MOV     R0,#?V0 + 0
        LCALL   ?PUSH_XSTACK_I_TWO
        CFI CFA_XSP16 add(XSP16, 30)
        MOV     R0,#?V0 + 0
        LCALL   ?PUSH_XSTACK_I_TWO
        CFI CFA_XSP16 add(XSP16, 32)
        MOV     R1,#0x20
        MOV     R4,#(GenericApp_epDesc & 0xff)
        MOV     R5,#((GenericApp_epDesc >> 8) & 0xff)
        MOV     A,#0xa
        LCALL   ?XSTACK_DISP0_8
        MOV     R2,DPL
        MOV     R3,DPH
        LCALL   ??AF_DataRequest?relay
        MOV     A,#0x9
        LCALL   ?DEALLOC_XSTACK8
        CFI CFA_XSP16 add(XSP16, 23)
//  135 }
        MOV     A,#0xd
        LCALL   ?DEALLOC_XSTACK8
        CFI CFA_XSP16 add(XSP16, 10)
        MOV     R7,#0x2
        LJMP    ?BANKED_LEAVE_XDATA
        CFI EndBlock cfiBlock4
//  136 

        RSEG BANKED_CODE:CODE:NOROOT(0)
//  137  void GenericApp_MessageMSGCB(afIncomingMSGPacket_t *pkt)
GenericApp_MessageMSGCB:
        CFI Block cfiBlock5 Using cfiCommon0
        CFI Function GenericApp_MessageMSGCB
//  138   {
        FUNCALL GenericApp_MessageMSGCB, osal_memcpy
        LOCFRAME ISTACK, 0, STACK
        LOCFRAME PSTACK, 0, STACK
        LOCFRAME XSTACK, 31, STACK
        LOCFRAME IOVERLAY, 0, STATIC
        LOCFRAME DOVERLAY, 0, STATIC
        ARGFRAME ISTACK, 0, STACK
        ARGFRAME PSTACK, 0, STACK
        ARGFRAME XSTACK, 31, STACK
        ARGFRAME IOVERLAY, 0, STATIC
        ARGFRAME DOVERLAY, 0, STATIC
        FUNCALL GenericApp_MessageMSGCB, HalUARTWrite
        LOCFRAME ISTACK, 0, STACK
        LOCFRAME PSTACK, 0, STACK
        LOCFRAME XSTACK, 28, STACK
        LOCFRAME IOVERLAY, 0, STATIC
        LOCFRAME DOVERLAY, 0, STATIC
        ARGFRAME ISTACK, 0, STACK
        ARGFRAME PSTACK, 0, STACK
        ARGFRAME XSTACK, 28, STACK
        ARGFRAME IOVERLAY, 0, STATIC
        ARGFRAME DOVERLAY, 0, STATIC
        FUNCALL GenericApp_MessageMSGCB, HalUARTWrite
        LOCFRAME ISTACK, 0, STACK
        LOCFRAME PSTACK, 0, STACK
        LOCFRAME XSTACK, 28, STACK
        LOCFRAME IOVERLAY, 0, STATIC
        LOCFRAME DOVERLAY, 0, STATIC
        ARGFRAME ISTACK, 0, STACK
        ARGFRAME PSTACK, 0, STACK
        ARGFRAME XSTACK, 28, STACK
        ARGFRAME IOVERLAY, 0, STATIC
        ARGFRAME DOVERLAY, 0, STATIC
        FUNCALL GenericApp_MessageMSGCB, HalUARTWrite
        LOCFRAME ISTACK, 0, STACK
        LOCFRAME PSTACK, 0, STACK
        LOCFRAME XSTACK, 28, STACK
        LOCFRAME IOVERLAY, 0, STATIC
        LOCFRAME DOVERLAY, 0, STATIC
        ARGFRAME ISTACK, 0, STACK
        ARGFRAME PSTACK, 0, STACK
        ARGFRAME XSTACK, 28, STACK
        ARGFRAME IOVERLAY, 0, STATIC
        ARGFRAME DOVERLAY, 0, STATIC
        FUNCALL GenericApp_MessageMSGCB, HalUARTWrite
        LOCFRAME ISTACK, 0, STACK
        LOCFRAME PSTACK, 0, STACK
        LOCFRAME XSTACK, 28, STACK
        LOCFRAME IOVERLAY, 0, STATIC
        LOCFRAME DOVERLAY, 0, STATIC
        ARGFRAME ISTACK, 0, STACK
        ARGFRAME PSTACK, 0, STACK
        ARGFRAME XSTACK, 28, STACK
        ARGFRAME IOVERLAY, 0, STATIC
        ARGFRAME DOVERLAY, 0, STATIC
        FUNCALL GenericApp_MessageMSGCB, HalUARTWrite
        LOCFRAME ISTACK, 0, STACK
        LOCFRAME PSTACK, 0, STACK
        LOCFRAME XSTACK, 28, STACK
        LOCFRAME IOVERLAY, 0, STATIC
        LOCFRAME DOVERLAY, 0, STATIC
        ARGFRAME ISTACK, 0, STACK
        ARGFRAME PSTACK, 0, STACK
        ARGFRAME XSTACK, 28, STACK
        ARGFRAME IOVERLAY, 0, STATIC
        ARGFRAME DOVERLAY, 0, STATIC
        FUNCALL GenericApp_MessageMSGCB, HalUARTWrite
        LOCFRAME ISTACK, 0, STACK
        LOCFRAME PSTACK, 0, STACK
        LOCFRAME XSTACK, 28, STACK
        LOCFRAME IOVERLAY, 0, STATIC
        LOCFRAME DOVERLAY, 0, STATIC
        ARGFRAME ISTACK, 0, STACK
        ARGFRAME PSTACK, 0, STACK
        ARGFRAME XSTACK, 28, STACK
        ARGFRAME IOVERLAY, 0, STATIC
        ARGFRAME DOVERLAY, 0, STATIC
        FUNCALL GenericApp_MessageMSGCB, HalUARTWrite
        LOCFRAME ISTACK, 0, STACK
        LOCFRAME PSTACK, 0, STACK
        LOCFRAME XSTACK, 28, STACK
        LOCFRAME IOVERLAY, 0, STATIC
        LOCFRAME DOVERLAY, 0, STATIC
        ARGFRAME ISTACK, 0, STACK
        ARGFRAME PSTACK, 0, STACK
        ARGFRAME XSTACK, 28, STACK
        ARGFRAME IOVERLAY, 0, STATIC
        ARGFRAME DOVERLAY, 0, STATIC
        FUNCALL GenericApp_MessageMSGCB, HalUARTWrite
        LOCFRAME ISTACK, 0, STACK
        LOCFRAME PSTACK, 0, STACK
        LOCFRAME XSTACK, 28, STACK
        LOCFRAME IOVERLAY, 0, STATIC
        LOCFRAME DOVERLAY, 0, STATIC
        ARGFRAME ISTACK, 0, STACK
        ARGFRAME PSTACK, 0, STACK
        ARGFRAME XSTACK, 28, STACK
        ARGFRAME IOVERLAY, 0, STATIC
        ARGFRAME DOVERLAY, 0, STATIC
        FUNCALL GenericApp_MessageMSGCB, HalUARTWrite
        LOCFRAME ISTACK, 0, STACK
        LOCFRAME PSTACK, 0, STACK
        LOCFRAME XSTACK, 28, STACK
        LOCFRAME IOVERLAY, 0, STATIC
        LOCFRAME DOVERLAY, 0, STATIC
        ARGFRAME ISTACK, 0, STACK
        ARGFRAME PSTACK, 0, STACK
        ARGFRAME XSTACK, 28, STACK
        ARGFRAME IOVERLAY, 0, STATIC
        ARGFRAME DOVERLAY, 0, STATIC
        FUNCALL GenericApp_MessageMSGCB, HalUARTWrite
        LOCFRAME ISTACK, 0, STACK
        LOCFRAME PSTACK, 0, STACK
        LOCFRAME XSTACK, 28, STACK
        LOCFRAME IOVERLAY, 0, STATIC
        LOCFRAME DOVERLAY, 0, STATIC
        ARGFRAME ISTACK, 0, STACK
        ARGFRAME PSTACK, 0, STACK
        ARGFRAME XSTACK, 28, STACK
        ARGFRAME IOVERLAY, 0, STATIC
        ARGFRAME DOVERLAY, 0, STATIC
        FUNCALL GenericApp_MessageMSGCB, HalUARTWrite
        LOCFRAME ISTACK, 0, STACK
        LOCFRAME PSTACK, 0, STACK
        LOCFRAME XSTACK, 28, STACK
        LOCFRAME IOVERLAY, 0, STATIC
        LOCFRAME DOVERLAY, 0, STATIC
        ARGFRAME ISTACK, 0, STACK
        ARGFRAME PSTACK, 0, STACK
        ARGFRAME XSTACK, 28, STACK
        ARGFRAME IOVERLAY, 0, STATIC
        ARGFRAME DOVERLAY, 0, STATIC
        FUNCALL GenericApp_MessageMSGCB, HalUARTWrite
        LOCFRAME ISTACK, 0, STACK
        LOCFRAME PSTACK, 0, STACK
        LOCFRAME XSTACK, 28, STACK
        LOCFRAME IOVERLAY, 0, STATIC
        LOCFRAME DOVERLAY, 0, STATIC
        ARGFRAME ISTACK, 0, STACK
        ARGFRAME PSTACK, 0, STACK
        ARGFRAME XSTACK, 28, STACK
        ARGFRAME IOVERLAY, 0, STATIC
        ARGFRAME DOVERLAY, 0, STATIC
        FUNCALL GenericApp_MessageMSGCB, HalUARTWrite
        LOCFRAME ISTACK, 0, STACK
        LOCFRAME PSTACK, 0, STACK
        LOCFRAME XSTACK, 28, STACK
        LOCFRAME IOVERLAY, 0, STATIC
        LOCFRAME DOVERLAY, 0, STATIC
        ARGFRAME ISTACK, 0, STACK
        ARGFRAME PSTACK, 0, STACK
        ARGFRAME XSTACK, 28, STACK
        ARGFRAME IOVERLAY, 0, STATIC
        ARGFRAME DOVERLAY, 0, STATIC
        FUNCALL GenericApp_MessageMSGCB, HalUARTWrite
        LOCFRAME ISTACK, 0, STACK
        LOCFRAME PSTACK, 0, STACK
        LOCFRAME XSTACK, 28, STACK
        LOCFRAME IOVERLAY, 0, STATIC
        LOCFRAME DOVERLAY, 0, STATIC
        ARGFRAME ISTACK, 0, STACK
        ARGFRAME PSTACK, 0, STACK
        ARGFRAME XSTACK, 28, STACK
        ARGFRAME IOVERLAY, 0, STATIC
        ARGFRAME DOVERLAY, 0, STATIC
        FUNCALL GenericApp_MessageMSGCB, HalUARTWrite
        LOCFRAME ISTACK, 0, STACK
        LOCFRAME PSTACK, 0, STACK
        LOCFRAME XSTACK, 28, STACK
        LOCFRAME IOVERLAY, 0, STATIC
        LOCFRAME DOVERLAY, 0, STATIC
        ARGFRAME ISTACK, 0, STACK
        ARGFRAME PSTACK, 0, STACK
        ARGFRAME XSTACK, 28, STACK
        ARGFRAME IOVERLAY, 0, STATIC
        ARGFRAME DOVERLAY, 0, STATIC
        FUNCALL GenericApp_MessageMSGCB, HalUARTWrite
        LOCFRAME ISTACK, 0, STACK
        LOCFRAME PSTACK, 0, STACK
        LOCFRAME XSTACK, 28, STACK
        LOCFRAME IOVERLAY, 0, STATIC
        LOCFRAME DOVERLAY, 0, STATIC
        ARGFRAME ISTACK, 0, STACK
        ARGFRAME PSTACK, 0, STACK
        ARGFRAME XSTACK, 28, STACK
        ARGFRAME IOVERLAY, 0, STATIC
        ARGFRAME DOVERLAY, 0, STATIC
        FUNCALL GenericApp_MessageMSGCB, HalUARTWrite
        LOCFRAME ISTACK, 0, STACK
        LOCFRAME PSTACK, 0, STACK
        LOCFRAME XSTACK, 28, STACK
        LOCFRAME IOVERLAY, 0, STATIC
        LOCFRAME DOVERLAY, 0, STATIC
        ARGFRAME ISTACK, 0, STACK
        ARGFRAME PSTACK, 0, STACK
        ARGFRAME XSTACK, 28, STACK
        ARGFRAME IOVERLAY, 0, STATIC
        ARGFRAME DOVERLAY, 0, STATIC
        FUNCALL GenericApp_MessageMSGCB, HalUARTWrite
        LOCFRAME ISTACK, 0, STACK
        LOCFRAME PSTACK, 0, STACK
        LOCFRAME XSTACK, 28, STACK
        LOCFRAME IOVERLAY, 0, STATIC
        LOCFRAME DOVERLAY, 0, STATIC
        ARGFRAME ISTACK, 0, STACK
        ARGFRAME PSTACK, 0, STACK
        ARGFRAME XSTACK, 28, STACK
        ARGFRAME IOVERLAY, 0, STATIC
        ARGFRAME DOVERLAY, 0, STATIC
        FUNCALL GenericApp_MessageMSGCB, HalUARTWrite
        LOCFRAME ISTACK, 0, STACK
        LOCFRAME PSTACK, 0, STACK
        LOCFRAME XSTACK, 28, STACK
        LOCFRAME IOVERLAY, 0, STATIC
        LOCFRAME DOVERLAY, 0, STATIC
        ARGFRAME ISTACK, 0, STACK
        ARGFRAME PSTACK, 0, STACK
        ARGFRAME XSTACK, 28, STACK
        ARGFRAME IOVERLAY, 0, STATIC
        ARGFRAME DOVERLAY, 0, STATIC
        FUNCALL GenericApp_MessageMSGCB, HalUARTWrite
        LOCFRAME ISTACK, 0, STACK
        LOCFRAME PSTACK, 0, STACK
        LOCFRAME XSTACK, 28, STACK
        LOCFRAME IOVERLAY, 0, STATIC
        LOCFRAME DOVERLAY, 0, STATIC
        ARGFRAME ISTACK, 0, STACK
        ARGFRAME PSTACK, 0, STACK
        ARGFRAME XSTACK, 28, STACK
        ARGFRAME IOVERLAY, 0, STATIC
        ARGFRAME DOVERLAY, 0, STATIC
        FUNCALL GenericApp_MessageMSGCB, HalUARTWrite
        LOCFRAME ISTACK, 0, STACK
        LOCFRAME PSTACK, 0, STACK
        LOCFRAME XSTACK, 28, STACK
        LOCFRAME IOVERLAY, 0, STATIC
        LOCFRAME DOVERLAY, 0, STATIC
        ARGFRAME ISTACK, 0, STACK
        ARGFRAME PSTACK, 0, STACK
        ARGFRAME XSTACK, 28, STACK
        ARGFRAME IOVERLAY, 0, STATIC
        ARGFRAME DOVERLAY, 0, STATIC
        FUNCALL GenericApp_MessageMSGCB, HalUARTWrite
        LOCFRAME ISTACK, 0, STACK
        LOCFRAME PSTACK, 0, STACK
        LOCFRAME XSTACK, 28, STACK
        LOCFRAME IOVERLAY, 0, STATIC
        LOCFRAME DOVERLAY, 0, STATIC
        ARGFRAME ISTACK, 0, STACK
        ARGFRAME PSTACK, 0, STACK
        ARGFRAME XSTACK, 28, STACK
        ARGFRAME IOVERLAY, 0, STATIC
        ARGFRAME DOVERLAY, 0, STATIC
        FUNCALL GenericApp_MessageMSGCB, HalUARTWrite
        LOCFRAME ISTACK, 0, STACK
        LOCFRAME PSTACK, 0, STACK
        LOCFRAME XSTACK, 28, STACK
        LOCFRAME IOVERLAY, 0, STATIC
        LOCFRAME DOVERLAY, 0, STATIC
        ARGFRAME ISTACK, 0, STACK
        ARGFRAME PSTACK, 0, STACK
        ARGFRAME XSTACK, 28, STACK
        ARGFRAME IOVERLAY, 0, STATIC
        ARGFRAME DOVERLAY, 0, STATIC
        MOV     A,#-0xb
        LCALL   ?BANKED_ENTER_XDATA
        CFI DPH0 load(1, XDATA, add(CFA_XSP16, literal(-1)))
        CFI DPL0 load(1, XDATA, add(CFA_XSP16, literal(-2)))
        CFI ?BRET_EXT load(1, XDATA, add(CFA_XSP16, literal(-3)))
        CFI ?RET_HIGH load(1, XDATA, add(CFA_XSP16, literal(-4)))
        CFI ?RET_LOW load(1, XDATA, add(CFA_XSP16, literal(-5)))
        CFI R7 load(1, XDATA, add(CFA_XSP16, literal(-6)))
        CFI V2 load(1, XDATA, add(CFA_XSP16, literal(-7)))
        CFI V1 load(1, XDATA, add(CFA_XSP16, literal(-8)))
        CFI V0 load(1, XDATA, add(CFA_XSP16, literal(-9)))
        CFI VB load(1, XDATA, add(CFA_XSP16, literal(-10)))
        CFI R6 load(1, XDATA, add(CFA_XSP16, literal(-11)))
        CFI CFA_SP SP+0
        CFI CFA_XSP16 add(XSP16, 11)
        ; Saved register size: 11
        ; Auto size: 17
        MOV     A,#-0x11
        LCALL   ?ALLOC_XSTACK8
        CFI CFA_XSP16 add(XSP16, 28)
//  139     unsigned char buffer[12];
//  140     switch(pkt->clusterId)
        MOV     DPL,R2
        MOV     DPH,R3
        INC     DPTR
        INC     DPTR
        INC     DPTR
        INC     DPTR
        MOVX    A,@DPTR
        XRL     A,#0x1
        JNZ     ??GenericApp_MessageMSGCB_0
        INC     DPTR
        MOVX    A,@DPTR
??GenericApp_MessageMSGCB_0:
        JZ      $+5
        LJMP    ??GenericApp_MessageMSGCB_1 & 0xFFFF
//  141     {
//  142      case GENERICAPP_CLUSTERID:
//  143       osal_memcpy(buffer,pkt->cmd.Data,12);
        ; Setup parameters for call to function osal_memcpy
        MOV     A,R2
        ADD     A,#0x21
        MOV     DPL,A
        MOV     A,R3
        ADDC    A,#0x0
        MOV     DPH,A
        MOVX    A,@DPTR
        MOV     ?V0 + 0,A
        INC     DPTR
        MOVX    A,@DPTR
        MOV     ?V0 + 1,A
        MOV     ?V0 + 2,#0x0
        MOV     R0,#?V0 + 0
        LCALL   ?PUSH_XSTACK_I_THREE
        CFI CFA_XSP16 add(XSP16, 31)
        MOV     R4,#0xc
        MOV     R5,#0x0
        MOV     A,#0x6
        LCALL   ?XSTACK_DISP0_8
        MOV     R2,DPL
        MOV     R3,DPH
        LCALL   ??osal_memcpy?relay
        MOV     A,#0x3
        LCALL   ?DEALLOC_XSTACK8
        CFI CFA_XSP16 add(XSP16, 28)
//  144       unsigned char buffer2[3];
//  145       unsigned char buffer3[2];
//  146       buffer2[0]=buffer[8];
        MOV     A,#0xb
        LCALL   ?XSTACK_DISP0_8
        MOVX    A,@DPTR
        MOV     DPL,?XSP + 0
        MOV     DPH,?XSP + 1
        MOVX    @DPTR,A
//  147       buffer2[1]='.';
        MOV     A,#0x1
        LCALL   ?XSTACK_DISP0_8
        MOV     A,#0x2e
        MOVX    @DPTR,A
//  148       buffer2[2]=buffer[9];
        MOV     A,#0xc
        LCALL   ?XSTACK_DISP0_8
        MOVX    A,@DPTR
        PUSH    A
        CFI CFA_SP SP+-1
        MOV     A,#0x2
        LCALL   ?XSTACK_DISP0_8
        POP     A
        CFI CFA_SP SP+0
        MOVX    @DPTR,A
//  149       HalUARTWrite(0,"SB",10);
        ; Setup parameters for call to function HalUARTWrite
        MOV     R4,#0xa
        MOV     R5,#0x0
        MOV     R2,#(`?<Constant "SB\\260\\345\\261\\340\\272\\305\\243\\272` & 0xff)
        MOV     R3,#((`?<Constant "SB\\260\\345\\261\\340\\272\\305\\243\\272` >> 8) & 0xff)
        MOV     R1,#0x0
        LCALL   ??HalUARTWrite?relay
//  150       HalUARTWrite(0,buffer,4);
        ; Setup parameters for call to function HalUARTWrite
        MOV     R4,#0x4
        MOV     R5,#0x0
        MOV     A,#0x3
        LCALL   ?XSTACK_DISP0_8
        LCALL   ?Subroutine1 & 0xFFFF
//  151       HalUARTWrite(0,"\n",1);
//  152       if(buffer[4]=='1')
??CrossCallReturnLabel_4:
        MOV     A,#0x7
        LCALL   ?XSTACK_DISP0_8
        MOVX    A,@DPTR
        XRL     A,#0x31
        MOV     R4,#0x8
        MOV     R5,#0x0
        JNZ     ??GenericApp_MessageMSGCB_2
//  153       {
//  154       HalUARTWrite(0,"LED:",8);
        ; Setup parameters for call to function HalUARTWrite
        MOV     R2,#(`?<Constant "LED\\265\\306:\\277\\252">` & 0xff)
        MOV     R3,#((`?<Constant "LED\\265\\306:\\277\\252">` >> 8) & 0xff)
        SJMP    ??GenericApp_MessageMSGCB_3
//  155       HalUARTWrite(0,"--",2);
//  156       }
//  157       else
//  158       {
//  159       HalUARTWrite(0,"LED:",8);
??GenericApp_MessageMSGCB_2:
        ; Setup parameters for call to function HalUARTWrite
        MOV     R2,#(`?<Constant "LED\\265\\306:\\271\\330">` & 0xff)
        MOV     R3,#((`?<Constant "LED\\265\\306:\\271\\330">` >> 8) & 0xff)
//  160       HalUARTWrite(0,"--",2);
//  161       }
??GenericApp_MessageMSGCB_3:
        LCALL   ?Subroutine0 & 0xFFFF
//  162      
//  163      if(buffer[5]=='1')
??CrossCallReturnLabel_0:
        MOV     A,#0x8
        LCALL   ?XSTACK_DISP0_8
        MOVX    A,@DPTR
        XRL     A,#0x31
        MOV     R4,#0xf
        MOV     R5,#0x0
        JNZ     ??GenericApp_MessageMSGCB_4
//  164       {
//  165       HalUARTWrite(0,":",15);
        ; Setup parameters for call to function HalUARTWrite
        MOV     R2,#(`?<Constant "\\271\\342\\265\\347\\264\\253\\270\\320\\3` & 0xff)
        MOV     R3,#((`?<Constant "\\271\\342\\265\\347\\264\\253\\270\\320\\3` >> 8) & 0xff)
        SJMP    ??GenericApp_MessageMSGCB_5
//  166      HalUARTWrite(0,"--",2);
//  167       }
//  168       else
//  169       {
//  170       HalUARTWrite(0,":",15);
??GenericApp_MessageMSGCB_4:
        ; Setup parameters for call to function HalUARTWrite
        MOV     R2,#(`?<Constant "\\271\\342\\265\\347\\264\\253\\270\\320\\3_1` & 0xff)
        MOV     R3,#((`?<Constant "\\271\\342\\265\\347\\264\\253\\270\\320\\3_1` >> 8) & 0xff)
//  171       HalUARTWrite(0,"--",2);
//  172       }
??GenericApp_MessageMSGCB_5:
        LCALL   ?Subroutine0 & 0xFFFF
//  173        if(buffer[6]=='1')
??CrossCallReturnLabel_1:
        MOV     A,#0x9
        LCALL   ?XSTACK_DISP0_8
        MOVX    A,@DPTR
        XRL     A,#0x31
        MOV     R4,#0x13
        MOV     R5,#0x0
        JNZ     ??GenericApp_MessageMSGCB_6
//  174       {
//  175       HalUARTWrite(0,":",19);
        ; Setup parameters for call to function HalUARTWrite
        MOV     R2,#(`?<Constant "\\265\\347\\264\\305\\274\\314\\265\\347\\3` & 0xff)
        MOV     R3,#((`?<Constant "\\265\\347\\264\\305\\274\\314\\265\\347\\3` >> 8) & 0xff)
        SJMP    ??GenericApp_MessageMSGCB_7
//  176       HalUARTWrite(0,"--",2);
//  177       }
//  178       else
//  179       {
//  180       HalUARTWrite(0,":",19);
??GenericApp_MessageMSGCB_6:
        ; Setup parameters for call to function HalUARTWrite
        MOV     R2,#(`?<Constant "\\265\\347\\264\\305\\274\\314\\265\\347\\3_1` & 0xff)
        MOV     R3,#((`?<Constant "\\265\\347\\264\\305\\274\\314\\265\\347\\3_1` >> 8) & 0xff)
//  181       HalUARTWrite(0,"--",2);
//  182       }
??GenericApp_MessageMSGCB_7:
        LCALL   ?Subroutine0 & 0xFFFF
//  183        if(buffer[7]=='0')
??CrossCallReturnLabel_2:
        MOV     A,#0xa
        LCALL   ?XSTACK_DISP0_8
        MOVX    A,@DPTR
        XRL     A,#0x30
        MOV     R4,#0x11
        MOV     R5,#0x0
        JNZ     ??GenericApp_MessageMSGCB_8
//  184       {
//  185       HalUARTWrite(0,":",17);
        ; Setup parameters for call to function HalUARTWrite
        MOV     R2,#(`?<Constant "\\273\\360\\321\\346\\264\\253\\270\\320\\3` & 0xff)
        MOV     R3,#((`?<Constant "\\273\\360\\321\\346\\264\\253\\270\\320\\3` >> 8) & 0xff)
        SJMP    ??GenericApp_MessageMSGCB_9
//  186       }
//  187       else
//  188       {
//  189       HalUARTWrite(0,":",17);
??GenericApp_MessageMSGCB_8:
        ; Setup parameters for call to function HalUARTWrite
        MOV     R2,#(`?<Constant "\\273\\360\\321\\346\\264\\253\\270\\320\\3_1` & 0xff)
        MOV     R3,#((`?<Constant "\\273\\360\\321\\346\\264\\253\\270\\320\\3_1` >> 8) & 0xff)
//  190       }
??GenericApp_MessageMSGCB_9:
        LCALL   ?Subroutine0 & 0xFFFF
//  191       HalUARTWrite(0,"--",2);
//  192       HalUARTWrite(0,":",9);
??CrossCallReturnLabel_3:
        ; Setup parameters for call to function HalUARTWrite
        MOV     R4,#0x9
        MOV     R5,#0x0
        MOV     R2,#(`?<Constant "\\271\\342\\303\\364\\265\\347\\321\\271:"` & 0xff)
        MOV     R3,#((`?<Constant "\\271\\342\\303\\364\\265\\347\\321\\271:"` >> 8) & 0xff)
        MOV     R1,#0x0
        LCALL   ??HalUARTWrite?relay
//  193       HalUARTWrite(0,buffer2,3);
        ; Setup parameters for call to function HalUARTWrite
        MOV     R4,#0x3
        MOV     R5,#0x0
        MOV     DPL,?XSP + 0
        MOV     DPH,?XSP + 1
        MOV     R2,DPL
        MOV     R3,DPH
        MOV     R1,#0x0
        LCALL   ??HalUARTWrite?relay
//  194       HalUARTWrite(0,buffer3,2);
        ; Setup parameters for call to function HalUARTWrite
        MOV     R4,#0x2
        MOV     R5,#0x0
        MOV     A,#0xf
        LCALL   ?XSTACK_DISP0_8
        LCALL   ?Subroutine1 & 0xFFFF
//  195       HalUARTWrite(0,"\n",1);
//  196       HalUARTWrite(0,"\n",1);
??CrossCallReturnLabel_5:
        ; Setup parameters for call to function HalUARTWrite
        MOV     R4,#0x1
        MOV     R5,#0x0
        MOV     R2,#(`?<Constant "\\n">` & 0xff)
        MOV     R3,#((`?<Constant "\\n">` >> 8) & 0xff)
        MOV     R1,#0x0
        LCALL   ??HalUARTWrite?relay
//  197       break;
//  198     }
//  199   }
??GenericApp_MessageMSGCB_1:
        MOV     A,#0x11
        LCALL   ?DEALLOC_XSTACK8
        CFI CFA_XSP16 add(XSP16, 11)
        MOV     R7,#0x3
        LJMP    ?BANKED_LEAVE_XDATA
        CFI EndBlock cfiBlock5

        RSEG BANKED_CODE:CODE:NOROOT(0)
?Subroutine1:
        CFI Block cfiCond6 Using cfiCommon0
        CFI NoFunction
        CFI Conditional ??CrossCallReturnLabel_4
        CFI R6 load(1, XDATA, add(CFA_XSP16, literal(-11)))
        CFI VB load(1, XDATA, add(CFA_XSP16, literal(-10)))
        CFI V0 load(1, XDATA, add(CFA_XSP16, literal(-9)))
        CFI V1 load(1, XDATA, add(CFA_XSP16, literal(-8)))
        CFI V2 load(1, XDATA, add(CFA_XSP16, literal(-7)))
        CFI R7 load(1, XDATA, add(CFA_XSP16, literal(-6)))
        CFI ?RET_LOW load(1, XDATA, add(CFA_XSP16, literal(-5)))
        CFI ?RET_HIGH load(1, XDATA, add(CFA_XSP16, literal(-4)))
        CFI ?BRET_EXT load(1, XDATA, add(CFA_XSP16, literal(-3)))
        CFI DPL0 load(1, XDATA, add(CFA_XSP16, literal(-2)))
        CFI DPH0 load(1, XDATA, add(CFA_XSP16, literal(-1)))
        CFI CFA_SP SP+0
        CFI CFA_XSP16 add(XSP16, 28)
        CFI Block cfiCond7 Using cfiCommon0
        CFI (cfiCond7) NoFunction
        CFI (cfiCond7) Conditional ??CrossCallReturnLabel_5
        CFI (cfiCond7) R6 load(1, XDATA, add(CFA_XSP16, literal(-11)))
        CFI (cfiCond7) VB load(1, XDATA, add(CFA_XSP16, literal(-10)))
        CFI (cfiCond7) V0 load(1, XDATA, add(CFA_XSP16, literal(-9)))
        CFI (cfiCond7) V1 load(1, XDATA, add(CFA_XSP16, literal(-8)))
        CFI (cfiCond7) V2 load(1, XDATA, add(CFA_XSP16, literal(-7)))
        CFI (cfiCond7) R7 load(1, XDATA, add(CFA_XSP16, literal(-6)))
        CFI (cfiCond7) ?RET_LOW load(1, XDATA, add(CFA_XSP16, literal(-5)))
        CFI (cfiCond7) ?RET_HIGH load(1, XDATA, add(CFA_XSP16, literal(-4)))
        CFI (cfiCond7) ?BRET_EXT load(1, XDATA, add(CFA_XSP16, literal(-3)))
        CFI (cfiCond7) DPL0 load(1, XDATA, add(CFA_XSP16, literal(-2)))
        CFI (cfiCond7) DPH0 load(1, XDATA, add(CFA_XSP16, literal(-1)))
        CFI (cfiCond7) CFA_SP SP+0
        CFI (cfiCond7) CFA_XSP16 add(XSP16, 28)
        CFI Block cfiPicker8 Using cfiCommon1
        CFI (cfiPicker8) NoFunction
        CFI (cfiPicker8) Picker
        MOV     R2,DPL
        MOV     R3,DPH
        MOV     R1,#0x0
        LCALL   ??HalUARTWrite?relay
        ; Setup parameters for call to function HalUARTWrite
        ; Setup parameters for call to function HalUARTWrite
        MOV     R4,#0x1
        MOV     R5,#0x0
        MOV     R2,#(`?<Constant "\\n">` & 0xff)
        MOV     R3,#((`?<Constant "\\n">` >> 8) & 0xff)
        CFI EndBlock cfiCond6
        CFI EndBlock cfiCond7
        CFI EndBlock cfiPicker8
        REQUIRE ?Subroutine3
        ; // Fall through to label ?Subroutine3

        RSEG BANKED_CODE:CODE:NOROOT(0)
?Subroutine3:
        CFI Block cfiCond9 Using cfiCommon0
        CFI NoFunction
        CFI Conditional ??CrossCallReturnLabel_4
        CFI R6 load(1, XDATA, add(CFA_XSP16, literal(-11)))
        CFI VB load(1, XDATA, add(CFA_XSP16, literal(-10)))
        CFI V0 load(1, XDATA, add(CFA_XSP16, literal(-9)))
        CFI V1 load(1, XDATA, add(CFA_XSP16, literal(-8)))
        CFI V2 load(1, XDATA, add(CFA_XSP16, literal(-7)))
        CFI R7 load(1, XDATA, add(CFA_XSP16, literal(-6)))
        CFI ?RET_LOW load(1, XDATA, add(CFA_XSP16, literal(-5)))
        CFI ?RET_HIGH load(1, XDATA, add(CFA_XSP16, literal(-4)))
        CFI ?BRET_EXT load(1, XDATA, add(CFA_XSP16, literal(-3)))
        CFI DPL0 load(1, XDATA, add(CFA_XSP16, literal(-2)))
        CFI DPH0 load(1, XDATA, add(CFA_XSP16, literal(-1)))
        CFI CFA_SP SP+0
        CFI CFA_XSP16 add(XSP16, 28)
        CFI Block cfiCond10 Using cfiCommon0
        CFI (cfiCond10) NoFunction
        CFI (cfiCond10) Conditional ??CrossCallReturnLabel_5
        CFI (cfiCond10) R6 load(1, XDATA, add(CFA_XSP16, literal(-11)))
        CFI (cfiCond10) VB load(1, XDATA, add(CFA_XSP16, literal(-10)))
        CFI (cfiCond10) V0 load(1, XDATA, add(CFA_XSP16, literal(-9)))
        CFI (cfiCond10) V1 load(1, XDATA, add(CFA_XSP16, literal(-8)))
        CFI (cfiCond10) V2 load(1, XDATA, add(CFA_XSP16, literal(-7)))
        CFI (cfiCond10) R7 load(1, XDATA, add(CFA_XSP16, literal(-6)))
        CFI (cfiCond10) ?RET_LOW load(1, XDATA, add(CFA_XSP16, literal(-5)))
        CFI (cfiCond10) ?RET_HIGH load(1, XDATA, add(CFA_XSP16, literal(-4)))
        CFI (cfiCond10) ?BRET_EXT load(1, XDATA, add(CFA_XSP16, literal(-3)))
        CFI (cfiCond10) DPL0 load(1, XDATA, add(CFA_XSP16, literal(-2)))
        CFI (cfiCond10) DPH0 load(1, XDATA, add(CFA_XSP16, literal(-1)))
        CFI (cfiCond10) CFA_SP SP+0
        CFI (cfiCond10) CFA_XSP16 add(XSP16, 28)
        CFI Block cfiCond11 Using cfiCommon0
        CFI (cfiCond11) NoFunction
        CFI (cfiCond11) Conditional ??CrossCallReturnLabel_0
        CFI (cfiCond11) R6 load(1, XDATA, add(CFA_XSP16, literal(-11)))
        CFI (cfiCond11) VB load(1, XDATA, add(CFA_XSP16, literal(-10)))
        CFI (cfiCond11) V0 load(1, XDATA, add(CFA_XSP16, literal(-9)))
        CFI (cfiCond11) V1 load(1, XDATA, add(CFA_XSP16, literal(-8)))
        CFI (cfiCond11) V2 load(1, XDATA, add(CFA_XSP16, literal(-7)))
        CFI (cfiCond11) R7 load(1, XDATA, add(CFA_XSP16, literal(-6)))
        CFI (cfiCond11) ?RET_LOW load(1, XDATA, add(CFA_XSP16, literal(-5)))
        CFI (cfiCond11) ?RET_HIGH load(1, XDATA, add(CFA_XSP16, literal(-4)))
        CFI (cfiCond11) ?BRET_EXT load(1, XDATA, add(CFA_XSP16, literal(-3)))
        CFI (cfiCond11) DPL0 load(1, XDATA, add(CFA_XSP16, literal(-2)))
        CFI (cfiCond11) DPH0 load(1, XDATA, add(CFA_XSP16, literal(-1)))
        CFI (cfiCond11) CFA_SP SP+0
        CFI (cfiCond11) CFA_XSP16 add(XSP16, 28)
        CFI Block cfiCond12 Using cfiCommon0
        CFI (cfiCond12) NoFunction
        CFI (cfiCond12) Conditional ??CrossCallReturnLabel_1
        CFI (cfiCond12) R6 load(1, XDATA, add(CFA_XSP16, literal(-11)))
        CFI (cfiCond12) VB load(1, XDATA, add(CFA_XSP16, literal(-10)))
        CFI (cfiCond12) V0 load(1, XDATA, add(CFA_XSP16, literal(-9)))
        CFI (cfiCond12) V1 load(1, XDATA, add(CFA_XSP16, literal(-8)))
        CFI (cfiCond12) V2 load(1, XDATA, add(CFA_XSP16, literal(-7)))
        CFI (cfiCond12) R7 load(1, XDATA, add(CFA_XSP16, literal(-6)))
        CFI (cfiCond12) ?RET_LOW load(1, XDATA, add(CFA_XSP16, literal(-5)))
        CFI (cfiCond12) ?RET_HIGH load(1, XDATA, add(CFA_XSP16, literal(-4)))
        CFI (cfiCond12) ?BRET_EXT load(1, XDATA, add(CFA_XSP16, literal(-3)))
        CFI (cfiCond12) DPL0 load(1, XDATA, add(CFA_XSP16, literal(-2)))
        CFI (cfiCond12) DPH0 load(1, XDATA, add(CFA_XSP16, literal(-1)))
        CFI (cfiCond12) CFA_SP SP+0
        CFI (cfiCond12) CFA_XSP16 add(XSP16, 28)
        CFI Block cfiCond13 Using cfiCommon0
        CFI (cfiCond13) NoFunction
        CFI (cfiCond13) Conditional ??CrossCallReturnLabel_2
        CFI (cfiCond13) R6 load(1, XDATA, add(CFA_XSP16, literal(-11)))
        CFI (cfiCond13) VB load(1, XDATA, add(CFA_XSP16, literal(-10)))
        CFI (cfiCond13) V0 load(1, XDATA, add(CFA_XSP16, literal(-9)))
        CFI (cfiCond13) V1 load(1, XDATA, add(CFA_XSP16, literal(-8)))
        CFI (cfiCond13) V2 load(1, XDATA, add(CFA_XSP16, literal(-7)))
        CFI (cfiCond13) R7 load(1, XDATA, add(CFA_XSP16, literal(-6)))
        CFI (cfiCond13) ?RET_LOW load(1, XDATA, add(CFA_XSP16, literal(-5)))
        CFI (cfiCond13) ?RET_HIGH load(1, XDATA, add(CFA_XSP16, literal(-4)))
        CFI (cfiCond13) ?BRET_EXT load(1, XDATA, add(CFA_XSP16, literal(-3)))
        CFI (cfiCond13) DPL0 load(1, XDATA, add(CFA_XSP16, literal(-2)))
        CFI (cfiCond13) DPH0 load(1, XDATA, add(CFA_XSP16, literal(-1)))
        CFI (cfiCond13) CFA_SP SP+0
        CFI (cfiCond13) CFA_XSP16 add(XSP16, 28)
        CFI Block cfiCond14 Using cfiCommon0
        CFI (cfiCond14) NoFunction
        CFI (cfiCond14) Conditional ??CrossCallReturnLabel_3
        CFI (cfiCond14) R6 load(1, XDATA, add(CFA_XSP16, literal(-11)))
        CFI (cfiCond14) VB load(1, XDATA, add(CFA_XSP16, literal(-10)))
        CFI (cfiCond14) V0 load(1, XDATA, add(CFA_XSP16, literal(-9)))
        CFI (cfiCond14) V1 load(1, XDATA, add(CFA_XSP16, literal(-8)))
        CFI (cfiCond14) V2 load(1, XDATA, add(CFA_XSP16, literal(-7)))
        CFI (cfiCond14) R7 load(1, XDATA, add(CFA_XSP16, literal(-6)))
        CFI (cfiCond14) ?RET_LOW load(1, XDATA, add(CFA_XSP16, literal(-5)))
        CFI (cfiCond14) ?RET_HIGH load(1, XDATA, add(CFA_XSP16, literal(-4)))
        CFI (cfiCond14) ?BRET_EXT load(1, XDATA, add(CFA_XSP16, literal(-3)))
        CFI (cfiCond14) DPL0 load(1, XDATA, add(CFA_XSP16, literal(-2)))
        CFI (cfiCond14) DPH0 load(1, XDATA, add(CFA_XSP16, literal(-1)))
        CFI (cfiCond14) CFA_SP SP+0
        CFI (cfiCond14) CFA_XSP16 add(XSP16, 28)
        CFI Block cfiPicker15 Using cfiCommon1
        CFI (cfiPicker15) NoFunction
        CFI (cfiPicker15) Picker
        MOV     R1,#0x0
        LCALL   ??HalUARTWrite?relay
        RET
        CFI EndBlock cfiCond9
        CFI EndBlock cfiCond10
        CFI EndBlock cfiCond11
        CFI EndBlock cfiCond12
        CFI EndBlock cfiCond13
        CFI EndBlock cfiCond14
        CFI EndBlock cfiPicker15

        RSEG BANKED_CODE:CODE:NOROOT(0)
?Subroutine0:
        CFI Block cfiCond16 Using cfiCommon0
        CFI NoFunction
        CFI Conditional ??CrossCallReturnLabel_0
        CFI R6 load(1, XDATA, add(CFA_XSP16, literal(-11)))
        CFI VB load(1, XDATA, add(CFA_XSP16, literal(-10)))
        CFI V0 load(1, XDATA, add(CFA_XSP16, literal(-9)))
        CFI V1 load(1, XDATA, add(CFA_XSP16, literal(-8)))
        CFI V2 load(1, XDATA, add(CFA_XSP16, literal(-7)))
        CFI R7 load(1, XDATA, add(CFA_XSP16, literal(-6)))
        CFI ?RET_LOW load(1, XDATA, add(CFA_XSP16, literal(-5)))
        CFI ?RET_HIGH load(1, XDATA, add(CFA_XSP16, literal(-4)))
        CFI ?BRET_EXT load(1, XDATA, add(CFA_XSP16, literal(-3)))
        CFI DPL0 load(1, XDATA, add(CFA_XSP16, literal(-2)))
        CFI DPH0 load(1, XDATA, add(CFA_XSP16, literal(-1)))
        CFI CFA_SP SP+0
        CFI CFA_XSP16 add(XSP16, 28)
        CFI Block cfiCond17 Using cfiCommon0
        CFI (cfiCond17) NoFunction
        CFI (cfiCond17) Conditional ??CrossCallReturnLabel_1
        CFI (cfiCond17) R6 load(1, XDATA, add(CFA_XSP16, literal(-11)))
        CFI (cfiCond17) VB load(1, XDATA, add(CFA_XSP16, literal(-10)))
        CFI (cfiCond17) V0 load(1, XDATA, add(CFA_XSP16, literal(-9)))
        CFI (cfiCond17) V1 load(1, XDATA, add(CFA_XSP16, literal(-8)))
        CFI (cfiCond17) V2 load(1, XDATA, add(CFA_XSP16, literal(-7)))
        CFI (cfiCond17) R7 load(1, XDATA, add(CFA_XSP16, literal(-6)))
        CFI (cfiCond17) ?RET_LOW load(1, XDATA, add(CFA_XSP16, literal(-5)))
        CFI (cfiCond17) ?RET_HIGH load(1, XDATA, add(CFA_XSP16, literal(-4)))
        CFI (cfiCond17) ?BRET_EXT load(1, XDATA, add(CFA_XSP16, literal(-3)))
        CFI (cfiCond17) DPL0 load(1, XDATA, add(CFA_XSP16, literal(-2)))
        CFI (cfiCond17) DPH0 load(1, XDATA, add(CFA_XSP16, literal(-1)))
        CFI (cfiCond17) CFA_SP SP+0
        CFI (cfiCond17) CFA_XSP16 add(XSP16, 28)
        CFI Block cfiCond18 Using cfiCommon0
        CFI (cfiCond18) NoFunction
        CFI (cfiCond18) Conditional ??CrossCallReturnLabel_2
        CFI (cfiCond18) R6 load(1, XDATA, add(CFA_XSP16, literal(-11)))
        CFI (cfiCond18) VB load(1, XDATA, add(CFA_XSP16, literal(-10)))
        CFI (cfiCond18) V0 load(1, XDATA, add(CFA_XSP16, literal(-9)))
        CFI (cfiCond18) V1 load(1, XDATA, add(CFA_XSP16, literal(-8)))
        CFI (cfiCond18) V2 load(1, XDATA, add(CFA_XSP16, literal(-7)))
        CFI (cfiCond18) R7 load(1, XDATA, add(CFA_XSP16, literal(-6)))
        CFI (cfiCond18) ?RET_LOW load(1, XDATA, add(CFA_XSP16, literal(-5)))
        CFI (cfiCond18) ?RET_HIGH load(1, XDATA, add(CFA_XSP16, literal(-4)))
        CFI (cfiCond18) ?BRET_EXT load(1, XDATA, add(CFA_XSP16, literal(-3)))
        CFI (cfiCond18) DPL0 load(1, XDATA, add(CFA_XSP16, literal(-2)))
        CFI (cfiCond18) DPH0 load(1, XDATA, add(CFA_XSP16, literal(-1)))
        CFI (cfiCond18) CFA_SP SP+0
        CFI (cfiCond18) CFA_XSP16 add(XSP16, 28)
        CFI Block cfiCond19 Using cfiCommon0
        CFI (cfiCond19) NoFunction
        CFI (cfiCond19) Conditional ??CrossCallReturnLabel_3
        CFI (cfiCond19) R6 load(1, XDATA, add(CFA_XSP16, literal(-11)))
        CFI (cfiCond19) VB load(1, XDATA, add(CFA_XSP16, literal(-10)))
        CFI (cfiCond19) V0 load(1, XDATA, add(CFA_XSP16, literal(-9)))
        CFI (cfiCond19) V1 load(1, XDATA, add(CFA_XSP16, literal(-8)))
        CFI (cfiCond19) V2 load(1, XDATA, add(CFA_XSP16, literal(-7)))
        CFI (cfiCond19) R7 load(1, XDATA, add(CFA_XSP16, literal(-6)))
        CFI (cfiCond19) ?RET_LOW load(1, XDATA, add(CFA_XSP16, literal(-5)))
        CFI (cfiCond19) ?RET_HIGH load(1, XDATA, add(CFA_XSP16, literal(-4)))
        CFI (cfiCond19) ?BRET_EXT load(1, XDATA, add(CFA_XSP16, literal(-3)))
        CFI (cfiCond19) DPL0 load(1, XDATA, add(CFA_XSP16, literal(-2)))
        CFI (cfiCond19) DPH0 load(1, XDATA, add(CFA_XSP16, literal(-1)))
        CFI (cfiCond19) CFA_SP SP+0
        CFI (cfiCond19) CFA_XSP16 add(XSP16, 28)
        CFI Block cfiPicker20 Using cfiCommon1
        CFI (cfiPicker20) NoFunction
        CFI (cfiPicker20) Picker
        MOV     R1,#0x0
        LCALL   ??HalUARTWrite?relay
        ; Setup parameters for call to function HalUARTWrite
        ; Setup parameters for call to function HalUARTWrite
        ; Setup parameters for call to function HalUARTWrite
        ; Setup parameters for call to function HalUARTWrite
        MOV     R4,#0x2
        MOV     R5,#0x0
        MOV     R2,#(`?<Constant "--">` & 0xff)
        MOV     R3,#((`?<Constant "--">` >> 8) & 0xff)
        SJMP    ?Subroutine3
        CFI EndBlock cfiCond16
        CFI EndBlock cfiCond17
        CFI EndBlock cfiCond18
        CFI EndBlock cfiCond19
        CFI EndBlock cfiPicker20

        RSEG BANK_RELAYS:CODE:REORDER:NOROOT(0)
??GenericApp_Init?relay:
        LCALL   ?BDISPATCH
        DATA
        DC24    GenericApp_Init

        RSEG BANK_RELAYS:CODE:REORDER:NOROOT(0)
??GenericApp_ProcessEvent?relay:
        LCALL   ?BDISPATCH
        DATA
        DC24    GenericApp_ProcessEvent

        RSEG BANK_RELAYS:CODE:REORDER:NOROOT(0)
??rxCB?relay:
        LCALL   ?BDISPATCH
        DATA
        DC24    rxCB

        RSEG BANK_RELAYS:CODE:REORDER:NOROOT(0)
??GenericApp_SendTheMessage?relay:
        LCALL   ?BDISPATCH
        DATA
        DC24    GenericApp_SendTheMessage

        RSEG BANK_RELAYS:CODE:REORDER:NOROOT(0)
??GenericApp_MessageMSGCB?relay:
        LCALL   ?BDISPATCH
        DATA
        DC24    GenericApp_MessageMSGCB

        RSEG XDATA_ROM_C:CONST:REORDER:NOROOT(0)
        DATA
`?<Constant "SB\\260\\345\\261\\340\\272\\305\\243\\272`:
        DB "SB\260\345\261\340\272\305\243\272"

        RSEG XDATA_ROM_C:CONST:REORDER:NOROOT(0)
        DATA
`?<Constant "\\n">`:
        DB "\012"

        RSEG XDATA_ROM_C:CONST:REORDER:NOROOT(0)
        DATA
`?<Constant "LED\\265\\306:\\277\\252">`:
        DB "LED\265\306:\277\252"

        RSEG XDATA_ROM_C:CONST:REORDER:NOROOT(0)
        DATA
`?<Constant "--">`:
        DB "--"

        RSEG XDATA_ROM_C:CONST:REORDER:NOROOT(0)
        DATA
`?<Constant "LED\\265\\306:\\271\\330">`:
        DB "LED\265\306:\271\330"

        RSEG XDATA_ROM_C:CONST:REORDER:NOROOT(0)
        DATA
`?<Constant "\\271\\342\\265\\347\\264\\253\\270\\320\\3`:
        DB "\271\342\265\347\264\253\270\320\306\367:\260\265\311\253"

        RSEG XDATA_ROM_C:CONST:REORDER:NOROOT(0)
        DATA
`?<Constant "\\271\\342\\265\\347\\264\\253\\270\\320\\3_1`:
        DB "\271\342\265\347\264\253\270\320\306\367:\301\301\311\253"

        RSEG XDATA_ROM_C:CONST:REORDER:NOROOT(0)
        DATA
`?<Constant "\\265\\347\\264\\305\\274\\314\\265\\347\\3`:
        DB "\265\347\264\305\274\314\265\347\306\367:\263\243\277\252\261\325\272\317"

        RSEG XDATA_ROM_C:CONST:REORDER:NOROOT(0)
        DATA
`?<Constant "\\265\\347\\264\\305\\274\\314\\265\\347\\3_1`:
        DB "\265\347\264\305\274\314\265\347\306\367:\263\243\261\325\261\325\272\317"

        RSEG XDATA_ROM_C:CONST:REORDER:NOROOT(0)
        DATA
`?<Constant "\\273\\360\\321\\346\\264\\253\\270\\320\\3`:
        DB "\273\360\321\346\264\253\270\320\306\367:\316\336\273\360\321\346"

        RSEG XDATA_ROM_C:CONST:REORDER:NOROOT(0)
        DATA
`?<Constant "\\273\\360\\321\\346\\264\\253\\270\\320\\3_1`:
        DB "\273\360\321\346\264\253\270\320\306\367:\323\320\273\360\321\346"

        RSEG XDATA_ROM_C:CONST:REORDER:NOROOT(0)
        DATA
`?<Constant "\\271\\342\\303\\364\\265\\347\\321\\271:"`:
        DB "\271\342\303\364\265\347\321\271:"

        END
// 
// 831 bytes in segment BANKED_CODE
//  30 bytes in segment BANK_RELAYS
// 166 bytes in segment XDATA_ROM_C
//   9 bytes in segment XDATA_Z
// 
// 861 bytes of CODE  memory
// 166 bytes of CONST memory
//   9 bytes of XDATA memory
//
//Errors: none
//Warnings: none
